(dp0
I1
(dp1
S'set'
p2
F0.009375
sS'reference'
p3
F0.0010416666666666667
sS'give'
p4
F0.01875
sS'@card@'
p5
F0.07916666666666666
sS'text'
p6
F0.0010416666666666667
sS'image'
p7
F0.013541666666666667
sS'find'
p8
F0.029166666666666667
sS'number'
p9
F0.019791666666666666
sS'evidence'
p10
F0.00625
sS'put'
p11
F0.011458333333333333
sS'committee'
p12
F0.003125
sS'church'
p13
F0.005208333333333333
sS'follow'
p14
F0.007291666666666667
sS'thing'
p15
F0.007291666666666667
sS'event'
p16
F0.010416666666666666
sS'information'
p17
F0.013541666666666667
sS'turn'
p18
F0.0125
sS'court'
p19
F0.003125
sS'appear'
p20
F0.3302083333333333
sS'service'
p21
F0.005208333333333333
sS'area'
p22
F0.022916666666666665
sS'check'
p23
F0.0010416666666666667
sS'show'
p24
F0.016666666666666666
sS'question'
p25
F0.00625
sS'click'
p26
F0.011458333333333333
sS'feel'
p27
F0.011458333333333333
sS'add'
p28
F0.008333333333333333
sS'book'
p29
F0.015625
sS'call'
p30
F0.010416666666666666
sS'performance'
p31
F0.00625
sS'include'
p32
F0.014583333333333334
sS'issue'
p33
F0.004166666666666667
sS'national'
p34
F0.010416666666666666
sS'week'
p35
F0.011458333333333333
sS'read'
p36
F0.011458333333333333
sS'company'
p37
F0.009375
sS'practice'
p38
F0.008333333333333333
sS'term'
p39
F0.004166666666666667
sS'@ord@'
p40
F0.014583333333333334
sS'site'
p41
F0.00625
sS'date'
p42
F0.010416666666666666
sS'end'
p43
F0.0125
sS'post'
p44
F0.00625
sS'change'
p45
F0.009375
sS'case'
p46
F0.017708333333333333
sS'account'
p47
F0.0020833333333333333
sS'word'
p48
F0.010416666666666666
sS'language'
p49
F0.009375
sS'home'
p50
F0.017708333333333333
sS'list'
p51
F0.011458333333333333
sS'think'
p52
F0.0125
sS'page'
p53
F0.016666666666666666
sS"n't"
p54
F0.01875
sS'provide'
p55
F0.007291666666666667
sS'command'
p56
F0.0010416666666666667
sS'place'
p57
F0.014583333333333334
sS'order'
p58
F0.011458333333333333
sS'fact'
p59
F0.009375
sS'mean'
p60
F0.008333333333333333
ssI2
(dp61
S'web'
p62
F0.1414141414141414
sg39
F0.16161616161616163
sg2
F0.030303030303030304
sg48
F0.010101010101010102
sg20
F0.1111111111111111
sg49
F0.010101010101010102
sg15
F0.020202020202020204
sg5
F0.030303030303030304
sg6
F0.09090909090909091
sg38
F0.010101010101010102
sg9
F0.020202020202020204
sg41
F0.1111111111111111
sg55
F0.010101010101010102
sg28
F0.010101010101010102
sg21
F0.04040404040404041
sg36
F0.04040404040404041
sg42
F0.010101010101010102
sg44
F0.010101010101010102
sg32
F0.020202020202020204
sg33
F0.010101010101010102
sg3
F0.10101010101010101
ssI3
(dp63
g4
F0.10112359550561797
sg6
F0.011235955056179775
sg9
F0.011235955056179775
sg10
F0.011235955056179775
sg14
F0.011235955056179775
sg23
F0.12359550561797752
sg17
F0.033707865168539325
sg20
F0.033707865168539325
sg21
F0.0449438202247191
sg55
F0.011235955056179775
sg24
F0.011235955056179775
sg28
F0.033707865168539325
sg32
F0.011235955056179775
sS'hear'
p64
F0.02247191011235955
sg44
F0.033707865168539325
sg45
F0.02247191011235955
sS'log'
p65
F0.14606741573033707
sg47
F0.0449438202247191
sg51
F0.06741573033707865
sg52
F0.033707865168539325
sg15
F0.0449438202247191
sg56
F0.11235955056179775
sg58
F0.02247191011235955
ssI4
(dp66
g19
F0.017857142857142856
sg20
F0.05357142857142857
sg24
F0.03571428571428571
sg5
F0.05357142857142857
sg48
F0.03571428571428571
sg34
F0.05357142857142857
sg38
F0.017857142857142856
sg25
F0.03571428571428571
sg53
F0.017857142857142856
sg27
F0.017857142857142856
sg28
F0.017857142857142856
sg30
F0.017857142857142856
sg12
F0.14285714285714285
sg14
F0.017857142857142856
sg64
F0.07142857142857142
sg43
F0.017857142857142856
sg33
F0.10714285714285714
sg58
F0.017857142857142856
sS'society'
p67
F0.25
ssI5
(dp68
g52
F0.0784313725490196
sg20
F0.0392156862745098
sg49
F0.0196078431372549
sg5
F0.0196078431372549
sg8
F0.0196078431372549
sg54
F0.0392156862745098
sg31
F0.17647058823529413
sg3
F0.0392156862745098
sg29
F0.0196078431372549
sg64
F0.0392156862745098
sg13
F0.11764705882352941
sS'music'
p69
F0.23529411764705882
sg16
F0.058823529411764705
sg59
F0.0392156862745098
sg60
F0.058823529411764705
ssI6
(dp70
g57
F0.2
sg38
F0.2
sg19
F0.2
sg21
F0.2
sg40
F0.2
ssI7
(dp71
g46
F0.03636363636363636
sg62
F0.01818181818181818
sg47
F0.03636363636363636
sg19
F0.10909090909090909
sg20
F0.03636363636363636
sg24
F0.01818181818181818
sg5
F0.01818181818181818
sg37
F0.05454545454545454
sg25
F0.05454545454545454
sg10
F0.14545454545454545
sg55
F0.03636363636363636
sg64
F0.05454545454545454
sg12
F0.01818181818181818
sS'section'
p72
F0.23636363636363636
sg11
F0.01818181818181818
sg14
F0.03636363636363636
sg53
F0.07272727272727272
ssI8
(dp73
g46
F0.07692307692307693
sg39
F0.07692307692307693
sg15
F0.15384615384615385
sg27
F0.07692307692307693
sg25
F0.07692307692307693
sg55
F0.07692307692307693
sg57
F0.23076923076923078
sg11
F0.07692307692307693
sg44
F0.15384615384615385
ss.