(dp0
I1
(dp1
S'oper'
p2
F0.002631578947368421
sS'grip'
p3
F0.005263157894736842
sS'give'
p4
F0.002631578947368421
sS'dure'
p5
F0.005263157894736842
sS'modern'
p6
F0.021052631578947368
sS'number'
p7
F0.007894736842105263
sS'high'
p8
F0.005263157894736842
sS'need'
p9
F0.002631578947368421
sS'unit'
p10
F0.002631578947368421
sS'style'
p11
F0.007894736842105263
sS'tabl'
p12
F0.02894736842105263
sS'borg'
p13
F0.002631578947368421
sS'follow'
p14
F0.015789473684210527
sS'sport'
p15
F0.039473684210526314
sS'open'
p16
F0.018421052631578946
sS'special'
p17
F0.005263157894736842
sS'agassi'
p18
F0.005263157894736842
sS'court'
p19
F0.034210526315789476
sS'turn'
p20
F0.007894736842105263
sS'anoth'
p21
F0.005263157894736842
sS'point'
p22
F0.02368421052631579
sS'littl'
p23
F0.002631578947368421
sS'call'
p24
F0.060526315789473685
sS'includ'
p25
F0.010526315789473684
sS'racket'
p26
F0.10263157894736842
sS'sampra'
p27
F0.002631578947368421
sS'earli'
p28
F0.010526315789473684
sS'head'
p29
F0.010526315789473684
sS'ball'
p30
F0.05263157894736842
sS'hit'
p31
F0.018421052631578946
sS'string'
p32
F0.034210526315789476
sS'tenni'
p33
F0.08947368421052632
sS'onli'
p34
F0.007894736842105263
sS'hand'
p35
F0.007894736842105263
sS'bodi'
p36
F0.007894736842105263
sS'befor'
p37
F0.002631578947368421
sS'game'
p38
F0.05263157894736842
sS'part'
p39
F0.015789473684210527
sS'known'
p40
F0.018421052631578946
sS'end'
p41
F0.005263157894736842
sS'hold'
p42
F0.007894736842105263
sS'tenni_#-1'
p43
F0.013157894736842105
sS'play'
p44
F0.08157894736842106
sS'player'
p45
F0.06315789473684211
sS'howev'
p46
F0.005263157894736842
sS'thing'
p47
F0.002631578947368421
sS'american'
p48
F0.002631578947368421
sS'thi'
p49
F0.02631578947368421
sS'small'
p50
F0.005263157894736842
sS'mani'
p51
F0.007894736842105263
sS'chang'
p52
F0.015789473684210527
sS'think'
p53
F0.002631578947368421
sS'left'
p54
F0.002631578947368421
ssI2
(dp55
S'featur'
p56
F0.007722007722007722
sS'shot'
p57
F0.03861003861003861
sg4
F0.003861003861003861
sg5
F0.019305019305019305
sg6
F0.003861003861003861
sS'ani'
p58
F0.03088803088803089
sg8
F0.007722007722007722
sg45
F0.14285714285714285
sS'set'
p59
F0.007722007722007722
sg12
F0.04247104247104247
sS'forehand'
p60
F0.04247104247104247
sg26
F0.08494208494208494
sg14
F0.003861003861003861
sg34
F0.023166023166023165
sg42
F0.011583011583011582
sg19
F0.003861003861003861
sS'polic'
p61
F0.003861003861003861
sg21
F0.02702702702702703
sg25
F0.019305019305019305
sS'match'
p62
F0.04247104247104247
sg3
F0.08108108108108109
sg29
F0.011583011583011582
sg30
F0.015444015444015444
sg31
F0.03474903474903475
sg33
F0.02702702702702703
sS'gener'
p63
F0.011583011583011582
sg11
F0.04247104247104247
sS'becaus'
p64
F0.003861003861003861
sg36
F0.019305019305019305
sg37
F0.003861003861003861
sg38
F0.007722007722007722
sg39
F0.003861003861003861
sg40
F0.003861003861003861
sg41
F0.003861003861003861
sg35
F0.03861003861003861
sg44
F0.03861003861003861
sS'look'
p65
F0.003861003861003861
sS'cover'
p66
F0.003861003861003861
sg47
F0.003861003861003861
sg49
F0.003861003861003861
sg51
F0.011583011583011582
sg52
F0.015444015444015444
sS'side'
p67
F0.03861003861003861
sg54
F0.003861003861003861
ssI3
(dp68
g2
F0.04225352112676056
sS'enterpris'
p69
F0.07042253521126761
sg22
F0.02112676056338028
sg7
F0.007042253521126761
sS'want'
p70
F0.014084507042253521
sg26
F0.14084507042253522
sg14
F0.014084507042253521
sg17
F0.09154929577464789
sg34
F0.014084507042253521
sg21
F0.04225352112676056
sg24
F0.007042253521126761
sS'interest'
p71
F0.07746478873239436
sg63
F0.007042253521126761
sS'privat'
p72
F0.035211267605633804
sg58
F0.028169014084507043
sg39
F0.014084507042253521
sS'govern'
p73
F0.04225352112676056
sg40
F0.014084507042253521
sg42
F0.014084507042253521
sS'politician'
p74
F0.09154929577464789
sg46
F0.028169014084507043
sS'doe'
p75
F0.04225352112676056
sS"n't"
p76
F0.007042253521126761
sg49
F0.07746478873239436
sg50
F0.02112676056338028
sg51
F0.02112676056338028
sg54
F0.014084507042253521
ssI4
(dp77
g69
F0.006896551724137931
sg56
F0.05517241379310345
sg22
F0.013793103448275862
sg5
F0.013793103448275862
sg7
F0.013793103448275862
sg10
F0.020689655172413793
sg14
F0.013793103448275862
sg26
F0.12413793103448276
sS'home'
p78
F0.027586206896551724
sS'film'
p79
F0.013793103448275862
sg41
F0.006896551724137931
sS'appear'
p80
F0.0896551724137931
sg61
F0.06206896551724138
sS'show'
p81
F0.09655172413793103
sS'father'
p82
F0.006896551724137931
sS'start'
p83
F0.034482758620689655
sS'mr.'
p84
F0.006896551724137931
sg25
F0.06206896551724138
sg62
F0.006896551724137931
sg28
F0.006896551724137931
sg44
F0.11724137931034483
sS'rise'
p85
F0.04827586206896552
sg33
F0.006896551724137931
sg37
F0.006896551724137931
sg39
F0.020689655172413793
sg73
F0.013793103448275862
sg66
F0.006896551724137931
sg75
F0.006896551724137931
sg20
F0.006896551724137931
sg48
F0.013793103448275862
sS"'re"
p86
F0.006896551724137931
sg50
F0.006896551724137931
sg51
F0.020689655172413793
sg54
F0.034482758620689655
ssI5
(dp87
g59
F0.011363636363636364
sg57
F0.005681818181818182
sg4
F0.019886363636363636
sg64
F0.02556818181818182
sg8
F0.014204545454545454
sg26
F0.11079545454545454
sg70
F0.03409090909090909
sg9
F0.022727272727272728
sg78
F0.017045454545454544
sg16
F0.017045454545454544
sS'album'
p88
F0.002840909090909091
sg34
F0.014204545454545454
sS"'ll"
p89
F0.03125
sg20
F0.011363636363636364
sg61
F0.002840909090909091
sg21
F0.011363636363636364
sg22
F0.002840909090909091
sg82
F0.017045454545454544
sg23
F0.03125
sg83
F0.014204545454545454
sS'stori'
p90
F0.005681818181818182
sg24
F0.022727272727272728
sg25
F0.005681818181818182
sg81
F0.011363636363636364
sS'tri'
p91
F0.048295454545454544
sg29
F0.028409090909090908
sg31
F0.002840909090909091
sS'peopl'
p92
F0.03977272727272727
sg85
F0.008522727272727272
sg72
F0.002840909090909091
sg35
F0.019886363636363636
sg37
F0.022727272727272728
sg7
F0.002840909090909091
sg42
F0.002840909090909091
sg44
F0.011363636363636364
sg53
F0.03977272727272727
sS'word'
p93
F0.011363636363636364
sg65
F0.02556818181818182
sS'later'
p94
F0.005681818181818182
sg75
F0.002840909090909091
sg76
F0.10511363636363637
sg47
F0.019886363636363636
sg86
F0.04261363636363636
sg49
F0.07102272727272728
sg50
F0.005681818181818182
sg51
F0.008522727272727272
sg67
F0.002840909090909091
sg54
F0.005681818181818182
ssI6
(dp95
g2
F0.019417475728155338
sg4
F0.019417475728155338
sg5
F0.02912621359223301
sg7
F0.038834951456310676
sg8
F0.009708737864077669
sg26
F0.08737864077669903
sg10
F0.04854368932038835
sg9
F0.009708737864077669
sg16
F0.009708737864077669
sg79
F0.13592233009708737
sg72
F0.02912621359223301
sg90
F0.019417475728155338
sg25
F0.009708737864077669
sg27
F0.009708737864077669
sg62
F0.009708737864077669
sg28
F0.02912621359223301
sg44
F0.009708737864077669
sg92
F0.02912621359223301
sg63
F0.009708737864077669
sg11
F0.009708737864077669
sg64
F0.08737864077669903
sg37
F0.019417475728155338
sg73
F0.02912621359223301
sg40
F0.009708737864077669
sg35
F0.009708737864077669
sg93
F0.009708737864077669
sg46
F0.009708737864077669
sg94
F0.06796116504854369
sg20
F0.019417475728155338
sg48
F0.06796116504854369
sg49
F0.038834951456310676
sg51
F0.05825242718446602
ssI7
(dp96
g56
F0.0058823529411764705
sg33
F0.023529411764705882
sg7
F0.01764705882352941
sg26
F0.19411764705882353
sg10
F0.011764705882352941
sg9
F0.0058823529411764705
sg17
F0.0058823529411764705
sg88
F0.011764705882352941
sg18
F0.029411764705882353
sg19
F0.0058823529411764705
sg21
F0.011764705882352941
sg23
F0.01764705882352941
sg84
F0.07058823529411765
sg25
F0.0058823529411764705
sg71
F0.0058823529411764705
sg28
F0.01764705882352941
sg29
F0.052941176470588235
sg72
F0.01764705882352941
sg63
F0.047058823529411764
sg34
F0.023529411764705882
sg35
F0.0058823529411764705
sg36
F0.011764705882352941
sg37
F0.03529411764705882
sg38
F0.011764705882352941
sg39
F0.0058823529411764705
sg40
F0.0058823529411764705
sg41
F0.047058823529411764
sg42
F0.0058823529411764705
sg43
F0.03529411764705882
sg44
F0.011764705882352941
sg65
F0.0058823529411764705
sg46
F0.011764705882352941
sg94
F0.023529411764705882
sg66
F0.058823529411764705
sg47
F0.01764705882352941
sg49
F0.07058823529411765
sg50
F0.0058823529411764705
sg51
F0.0058823529411764705
sg67
F0.023529411764705882
sg54
F0.01764705882352941
ssI8
(dp97
g59
F0.08490566037735849
sg5
F0.009433962264150943
sg6
F0.018867924528301886
sg58
F0.02830188679245283
sg8
F0.009433962264150943
sg9
F0.04716981132075472
sg13
F0.07547169811320754
sg14
F0.009433962264150943
sg79
F0.018867924528301886
sg34
F0.009433962264150943
sg41
F0.009433962264150943
sg21
F0.018867924528301886
sg82
F0.02830188679245283
sg83
F0.009433962264150943
sg10
F0.018867924528301886
sg71
F0.009433962264150943
sg26
F0.07547169811320754
sg62
F0.07547169811320754
sg28
F0.009433962264150943
sg44
F0.05660377358490566
sg32
F0.009433962264150943
sg33
F0.08490566037735849
sg64
F0.02830188679245283
sg36
F0.03773584905660377
sg73
F0.009433962264150943
sg35
F0.009433962264150943
sg43
F0.018867924528301886
sg46
F0.04716981132075472
sg94
F0.02830188679245283
sg75
F0.018867924528301886
sg20
F0.02830188679245283
sg48
F0.03773584905660377
sg50
F0.009433962264150943
sg52
F0.009433962264150943
ssI9
(dp98
g2
F0.045454545454545456
sg93
F0.13636363636363635
sg80
F0.045454545454545456
sg47
F0.022727272727272728
sg92
F0.045454545454545456
sg94
F0.045454545454545456
sg58
F0.06818181818181818
sg75
F0.022727272727272728
sg49
F0.06818181818181818
sg90
F0.18181818181818182
sg39
F0.045454545454545456
sg12
F0.045454545454545456
sg25
F0.06818181818181818
sg35
F0.022727272727272728
sg51
F0.022727272727272728
sg26
F0.045454545454545456
sg78
F0.022727272727272728
sg42
F0.022727272727272728
sg53
F0.022727272727272728
ssI10
(dp99
g28
F0.10526315789473684
sg30
F0.05263157894736842
sg31
F0.05263157894736842
sg81
F0.05263157894736842
sg27
F0.47368421052631576
sg82
F0.10526315789473684
sg33
F0.10526315789473684
sg78
F0.05263157894736842
ssI11
(dp100
g19
F0.375
sg63
F0.125
sg85
F0.125
sg7
F0.125
sg8
F0.125
sg50
F0.125
ss.