(dp0
I1
(dp1
S'want'
p2
F0.0072992700729927005
sS'soon'
p3
F0.0072992700729927005
sS'brought'
p4
F0.014598540145985401
sS'sea'
p5
F0.0072992700729927005
sS'church'
p6
F0.0948905109489051
sS'seen'
p7
F0.0072992700729927005
sS'ship'
p8
F0.014598540145985401
sS'saw'
p9
F0.0072992700729927005
sS'death'
p10
F0.021897810218978103
sS'end'
p11
F0.051094890510948905
sS'god'
p12
F0.029197080291970802
sS'began'
p13
F0.014598540145985401
sS'able'
p14
F0.0364963503649635
sS'hope'
p15
F0.029197080291970802
sS'gave'
p16
F0.029197080291970802
sS'power'
p17
F0.13138686131386862
sS'means'
p18
F0.0072992700729927005
sS'took'
p19
F0.029197080291970802
sS'water'
p20
F0.014598540145985401
sS'moment'
p21
F0.014598540145985401
sS'part'
p22
F0.0072992700729927005
sS'hands'
p23
F0.014598540145985401
sS'put'
p24
F0.0072992700729927005
sS'present'
p25
F0.051094890510948905
sS'days'
p26
F0.0364963503649635
sS'place'
p27
F0.021897810218978103
sS'things'
p28
F0.029197080291970802
sS'abandon'
p29
F0.22627737226277372
sS'told'
p30
F0.014598540145985401
sS'left'
p31
F0.021897810218978103
ssI2
(dp32
g7
F0.0196078431372549
sS'land'
p33
F0.0784313725490196
sS'england'
p34
F0.058823529411764705
sg17
F0.0196078431372549
sS'lost'
p35
F0.0196078431372549
sS'house'
p36
F0.0196078431372549
sg12
F0.17647058823529413
sg23
F0.0392156862745098
sS'think'
p37
F0.0196078431372549
sS'hopes'
p38
F0.0196078431372549
sS'course'
p39
F0.0196078431372549
sS'mr.'
p40
F0.0196078431372549
sS'thought'
p41
F0.0196078431372549
sg2
F0.0392156862745098
sg6
F0.0196078431372549
sg29
F0.0392156862745098
sS'found'
p42
F0.0196078431372549
sS'john'
p43
F0.3137254901960784
sS'children'
p44
F0.0196078431372549
sg30
F0.0196078431372549
ssI3
(dp45
g28
F0.07368421052631578
sS'mind'
p46
F0.031578947368421054
sg39
F0.010526315789473684
sg2
F0.031578947368421054
sg7
F0.021052631578947368
sg44
F0.06315789473684211
sS"'ll"
p47
F0.08421052631578947
sg12
F0.010526315789473684
sS'father'
p48
F0.042105263157894736
sS'expected'
p49
F0.010526315789473684
sg15
F0.042105263157894736
sg30
F0.042105263157894736
sg18
F0.021052631578947368
sg21
F0.010526315789473684
sg23
F0.010526315789473684
sg24
F0.021052631578947368
sg11
F0.010526315789473684
sg25
F0.021052631578947368
sS'case'
p50
F0.010526315789473684
sS'sister'
p51
F0.010526315789473684
sS'abandoned'
p52
F0.031578947368421054
sg26
F0.021052631578947368
sS"n't"
p53
F0.2631578947368421
sS'mother'
p54
F0.010526315789473684
sg37
F0.06315789473684211
sg31
F0.031578947368421054
ssI4
(dp55
g36
F0.043209876543209874
sS'child'
p56
F0.006172839506172839
sg46
F0.012345679012345678
sg3
F0.024691358024691357
sg4
F0.006172839506172839
sg39
F0.043209876543209874
sS'manner'
p57
F0.006172839506172839
sg7
F0.024691358024691357
sS'home'
p58
F0.06172839506172839
sg8
F0.006172839506172839
sg44
F0.012345679012345678
sg41
F0.006172839506172839
sg10
F0.006172839506172839
sg48
F0.006172839506172839
sg40
F0.006172839506172839
sS'white'
p59
F0.012345679012345678
sg30
F0.006172839506172839
sg18
F0.030864197530864196
sg19
F0.006172839506172839
sg21
F0.018518518518518517
sg22
F0.037037037037037035
sg23
F0.006172839506172839
sg24
F0.006172839506172839
sg25
F0.012345679012345678
sg50
F0.07407407407407407
sg33
F0.018518518518518517
sg52
F0.04938271604938271
sS'country'
p60
F0.018518518518518517
sg53
F0.012345679012345678
sg27
F0.08641975308641975
sg54
F0.018518518518518517
sg29
F0.2839506172839506
sS'situation'
p61
F0.006172839506172839
sg37
F0.024691358024691357
ssI5
(dp62
g28
F0.005813953488372093
sg34
F0.005813953488372093
sg46
F0.011627906976744186
sS'heard'
p63
F0.011627906976744186
sg57
F0.01744186046511628
sg9
F0.01744186046511628
sg10
F0.01744186046511628
sg12
F0.005813953488372093
sg13
F0.01744186046511628
sg14
F0.005813953488372093
sg40
F0.08139534883720931
sg49
F0.005813953488372093
sg59
F0.01744186046511628
sg15
F0.01744186046511628
sg16
F0.040697674418604654
sg18
F0.011627906976744186
sg19
F0.046511627906976744
sg20
F0.011627906976744186
sg22
F0.06395348837209303
sg56
F0.06976744186046512
sg51
F0.01744186046511628
sg52
F0.20348837209302326
sg35
F0.01744186046511628
sg39
F0.03488372093023256
sg60
F0.005813953488372093
sg26
F0.011627906976744186
sg41
F0.06395348837209303
sS'night'
p64
F0.040697674418604654
sg42
F0.05232558139534884
sg31
F0.06976744186046512
ssI6
(dp65
g34
F0.09876543209876543
sg48
F0.09876543209876543
sg46
F0.07407407407407407
sg3
F0.06172839506172839
sg4
F0.037037037037037035
sg63
F0.012345679012345678
sg7
F0.012345679012345678
sg58
F0.012345679012345678
sg12
F0.012345679012345678
sg13
F0.037037037037037035
sg14
F0.037037037037037035
sg49
F0.012345679012345678
sg15
F0.024691358024691357
sg54
F0.13580246913580246
sg19
F0.024691358024691357
sg21
F0.012345679012345678
sg23
F0.04938271604938271
sg51
F0.07407407407407407
sg52
F0.04938271604938271
sg35
F0.024691358024691357
sg60
F0.012345679012345678
sg53
F0.012345679012345678
sg27
F0.012345679012345678
sg64
F0.012345679012345678
sg29
F0.012345679012345678
sg61
F0.012345679012345678
sg37
F0.024691358024691357
ssI7
(dp66
S'deck'
p67
F0.056338028169014086
sg46
F0.009389671361502348
sg3
F0.07042253521126761
sg4
F0.023474178403755867
sg63
F0.018779342723004695
sg57
F0.018779342723004695
sg5
F0.056338028169014086
sS'vessel'
p68
F0.04225352112676056
sg7
F0.014084507042253521
sg8
F0.06572769953051644
sg9
F0.06572769953051644
sg44
F0.009389671361502348
sg61
F0.018779342723004695
sg10
F0.03755868544600939
sg11
F0.004694835680751174
sg13
F0.009389671361502348
sS'board'
p69
F0.03755868544600939
sg49
F0.023474178403755867
sg59
F0.03286384976525822
sg15
F0.009389671361502348
sg16
F0.023474178403755867
sg18
F0.004694835680751174
sg19
F0.018779342723004695
sg20
F0.004694835680751174
sg21
F0.014084507042253521
sg23
F0.014084507042253521
sg38
F0.014084507042253521
sg25
F0.004694835680751174
sg50
F0.004694835680751174
sg33
F0.018779342723004695
sg52
F0.009389671361502348
sg35
F0.009389671361502348
sg60
F0.03755868544600939
sg24
F0.046948356807511735
sg26
F0.009389671361502348
sg41
F0.04225352112676056
sg27
F0.014084507042253521
sg64
F0.004694835680751174
sg42
F0.009389671361502348
sg30
F0.028169014084507043
sg37
F0.028169014084507043
sg31
F0.014084507042253521
ssI8
(dp70
g20
F0.21818181818181817
sg38
F0.05454545454545454
sg61
F0.09090909090909091
sg36
F0.01818181818181818
sg13
F0.05454545454545454
sg64
F0.05454545454545454
sg14
F0.01818181818181818
sg26
F0.01818181818181818
sg3
F0.05454545454545454
sg4
F0.01818181818181818
sg63
F0.01818181818181818
sg21
F0.01818181818181818
sg22
F0.01818181818181818
sg69
F0.05454545454545454
sg2
F0.09090909090909091
sg23
F0.01818181818181818
sg49
F0.01818181818181818
sg42
F0.09090909090909091
sg19
F0.01818181818181818
sg68
F0.03636363636363636
sg31
F0.01818181818181818
ssI9
(dp71
g36
F0.08860759493670886
sg3
F0.06329113924050633
sg4
F0.0379746835443038
sg63
F0.05063291139240506
sg57
F0.02531645569620253
sg58
F0.0759493670886076
sg44
F0.02531645569620253
sg11
F0.02531645569620253
sg12
F0.012658227848101266
sg13
F0.02531645569620253
sg48
F0.02531645569620253
sg49
F0.02531645569620253
sg15
F0.012658227848101266
sg16
F0.012658227848101266
sg64
F0.0759493670886076
sg20
F0.02531645569620253
sg21
F0.012658227848101266
sg22
F0.012658227848101266
sg23
F0.02531645569620253
sg38
F0.05063291139240506
sg51
F0.012658227848101266
sg52
F0.012658227848101266
sg35
F0.0379746835443038
sg60
F0.02531645569620253
sg24
F0.02531645569620253
sg26
F0.02531645569620253
sg41
F0.05063291139240506
sg27
F0.012658227848101266
sg54
F0.05063291139240506
sg42
F0.012658227848101266
sg30
F0.02531645569620253
ssI10
(dp72
g51
F0.034482758620689655
sg52
F0.034482758620689655
sg17
F0.034482758620689655
sg60
F0.10344827586206896
sg46
F0.06896551724137931
sg14
F0.06896551724137931
sg48
F0.13793103448275862
sg41
F0.034482758620689655
sg63
F0.10344827586206896
sg69
F0.06896551724137931
sg2
F0.10344827586206896
sg68
F0.034482758620689655
sg42
F0.034482758620689655
sg8
F0.06896551724137931
sg9
F0.034482758620689655
sg57
F0.034482758620689655
ss.