(dp0
I1
(dp1
S'heart'
p2
F0.004347826086956522
sS'set'
p3
F0.008695652173913044
sS'love'
p4
F0.004347826086956522
sS'help'
p5
F0.013043478260869565
sS'deck'
p6
F0.004347826086956522
sS'house'
p7
F0.02608695652173913
sS'mind'
p8
F0.008695652173913044
sS'soon'
p9
F0.008695652173913044
sS'rest'
p10
F0.004347826086956522
sS'brought'
p11
F0.004347826086956522
sS'heard'
p12
F0.004347826086956522
sS'human'
p13
F0.013043478260869565
sS'seen'
p14
F0.008695652173913044
sS'girl'
p15
F0.004347826086956522
sS'thought'
p16
F0.05217391304347826
sS'horse'
p17
F0.008695652173913044
sS'death'
p18
F0.013043478260869565
sS'end'
p19
F0.017391304347826087
sS'want'
p20
F0.004347826086956522
sS'thinking'
p21
F0.013043478260869565
sS'thy'
p22
F0.0391304347826087
sS'give'
p23
F0.021739130434782608
sS'young'
p24
F0.013043478260869565
sS'till'
p25
F0.004347826086956522
sS'live'
p26
F0.004347826086956522
sS'going'
p27
F0.004347826086956522
sS'white'
p28
F0.004347826086956522
sS'hope'
p29
F0.017391304347826087
sS'side'
p30
F0.004347826086956522
sS'eyes'
p31
F0.008695652173913044
sS'object'
p32
F0.013043478260869565
sS'power'
p33
F0.043478260869565216
sS'means'
p34
F0.004347826086956522
sS'strange'
p35
F0.013043478260869565
sS'knew'
p36
F0.017391304347826087
sS'stop'
p37
F0.013043478260869565
sS'took'
p38
F0.013043478260869565
sS'part'
p39
F0.008695652173913044
sS'understand'
p40
F0.004347826086956522
sS'words'
p41
F0.034782608695652174
sS'believe'
p42
F0.004347826086956522
sS'friends'
p43
F0.004347826086956522
sS'present'
p44
F0.004347826086956522
sS'women'
p45
F0.0391304347826087
sS'search'
p46
F0.021739130434782608
sS'land'
p47
F0.013043478260869565
sS'daughter'
p48
F0.008695652173913044
sS'look'
p49
F0.004347826086956522
sS'lost'
p50
F0.008695652173913044
sS'country'
p51
F0.030434782608695653
sS'days'
p52
F0.004347826086956522
sS'order'
p53
F0.017391304347826087
sS'leave'
p54
F0.021739130434782608
sS'person'
p55
F0.02608695652173913
sS'common'
p56
F0.008695652173913044
sS'night'
p57
F0.013043478260869565
sS'abandon'
p58
F0.17391304347826086
sS'signes'
p59
F0.034782608695652174
sS'called'
p60
F0.02608695652173913
sS'nature'
p61
F0.013043478260869565
sS'left'
p62
F0.008695652173913044
ssI2
(dp63
g20
F0.015625
sS'church'
p64
F0.1875
sS'ship'
p65
F0.015625
sS'prince'
p66
F0.015625
sg19
F0.03125
sS'god'
p67
F0.015625
sS'find'
p68
F0.015625
sg25
F0.015625
sg27
F0.015625
sS'lord'
p69
F0.015625
sS'told'
p70
F0.015625
sS'poor'
p71
F0.015625
sS'christian'
p72
F0.109375
sg33
F0.140625
sg61
F0.03125
sg58
F0.046875
sg39
F0.015625
sg44
F0.03125
sg47
F0.03125
sS'place'
p73
F0.0625
sg56
F0.09375
sS'small'
p74
F0.015625
sS'making'
p75
F0.015625
sg62
F0.03125
ssI3
(dp76
g3
F0.005747126436781609
sg4
F0.005747126436781609
sg49
F0.005747126436781609
sg7
F0.05747126436781609
sg8
F0.011494252873563218
sg9
F0.022988505747126436
sg75
F0.011494252873563218
sS'course'
p77
F0.017241379310344827
sS'manner'
p78
F0.034482758620689655
sg13
F0.005747126436781609
sg14
F0.005747126436781609
sS'home'
p79
F0.034482758620689655
sg10
F0.011494252873563218
sS'saw'
p80
F0.005747126436781609
sS'children'
p81
F0.017241379310344827
sg16
F0.017241379310344827
sg19
F0.011494252873563218
sS'thing'
p82
F0.005747126436781609
sS'continued'
p83
F0.022988505747126436
sS'began'
p84
F0.017241379310344827
sg57
F0.04597701149425287
sS'father'
p85
F0.017241379310344827
sg24
F0.005747126436781609
sg25
F0.022988505747126436
sS'astonishment'
p86
F0.011494252873563218
sS'passed'
p87
F0.011494252873563218
sS'expected'
p88
F0.011494252873563218
sg45
F0.005747126436781609
sS'tell'
p89
F0.005747126436781609
sS'gave'
p90
F0.028735632183908046
sS'woman'
p91
F0.011494252873563218
sg34
F0.005747126436781609
sg36
F0.005747126436781609
sg37
F0.005747126436781609
sS'sister'
p92
F0.022988505747126436
sS'free'
p93
F0.005747126436781609
sg38
F0.005747126436781609
sS'water'
p94
F0.011494252873563218
sg74
F0.017241379310344827
sS'moment'
p95
F0.011494252873563218
sg39
F0.028735632183908046
sS'french'
p96
F0.005747126436781609
sS'hands'
p97
F0.028735632183908046
sS'hopes'
p98
F0.017241379310344827
sS'immediately'
p99
F0.017241379310344827
sg42
F0.005747126436781609
sg43
F0.005747126436781609
sS'care'
p100
F0.011494252873563218
sg46
F0.011494252873563218
sg48
F0.005747126436781609
sS'carried'
p101
F0.011494252873563218
sg50
F0.017241379310344827
sg12
F0.022988505747126436
sg51
F0.011494252873563218
sS'age'
p102
F0.005747126436781609
sS'wife'
p103
F0.005747126436781609
sS'put'
p104
F0.017241379310344827
sg52
F0.017241379310344827
sS'morning'
p105
F0.017241379310344827
sS'large'
p106
F0.011494252873563218
sg55
F0.005747126436781609
sS'despair'
p107
F0.017241379310344827
sg73
F0.017241379310344827
sS'greatest'
p108
F0.011494252873563218
sS'mother'
p109
F0.028735632183908046
sg58
F0.005747126436781609
sS'found'
p110
F0.005747126436781609
sg70
F0.011494252873563218
sg60
F0.005747126436781609
sg62
F0.017241379310344827
ssI4
(dp111
S'think'
p112
F0.01893939393939394
sg5
F0.007575757575757576
sg6
F0.041666666666666664
sS'appeared'
p113
F0.011363636363636364
sS'fish'
p114
F0.003787878787878788
sg97
F0.015151515151515152
sg8
F0.007575757575757576
sg9
F0.05303030303030303
sg11
F0.026515151515151516
sg12
F0.015151515151515152
sg78
F0.01893939393939394
sS'sea'
p115
F0.015151515151515152
sg62
F0.003787878787878788
sS'vessel'
p116
F0.030303030303030304
sg14
F0.015151515151515152
sg65
F0.03787878787878788
sg80
F0.056818181818181816
sg81
F0.003787878787878788
sS'boat'
p117
F0.003787878787878788
sS'situation'
p118
F0.015151515151515152
sg16
F0.03787878787878788
sg18
F0.01893939393939394
sg19
F0.003787878787878788
sg20
F0.003787878787878788
sg43
F0.015151515151515152
sg84
F0.003787878787878788
sg23
F0.003787878787878788
sS'able'
p119
F0.003787878787878788
sS'crew'
p120
F0.015151515151515152
sg27
F0.003787878787878788
sg86
F0.022727272727272728
sg87
F0.003787878787878788
sg88
F0.015151515151515152
sg28
F0.026515151515151516
sg45
F0.007575757575757576
sg89
F0.003787878787878788
sS'friend'
p121
F0.003787878787878788
sS'board'
p122
F0.022727272727272728
sg71
F0.007575757575757576
sg31
F0.003787878787878788
sg32
F0.007575757575757576
sg57
F0.003787878787878788
sg37
F0.015151515151515152
sg38
F0.015151515151515152
sg94
F0.015151515151515152
sg95
F0.007575757575757576
sg39
F0.003787878787878788
sg40
F0.007575757575757576
sS'fresh'
p123
F0.011363636363636364
sg104
F0.041666666666666664
sg99
F0.011363636363636364
sg42
F0.003787878787878788
sg83
F0.003787878787878788
sg44
F0.003787878787878788
sg49
F0.003787878787878788
sS'case'
p124
F0.003787878787878788
sg47
F0.015151515151515152
sg101
F0.011363636363636364
sg50
F0.003787878787878788
sg51
F0.03409090909090909
sg102
F0.003787878787878788
sg52
F0.007575757575757576
sg30
F0.011363636363636364
sg106
F0.007575757575757576
sg82
F0.015151515151515152
sg107
F0.003787878787878788
sg73
F0.011363636363636364
sg108
F0.003787878787878788
sg67
F0.003787878787878788
sg74
F0.011363636363636364
sg110
F0.011363636363636364
sg90
F0.01893939393939394
sg70
F0.022727272727272728
sg53
F0.007575757575757576
sg29
F0.007575757575757576
ssI5
(dp125
g2
F0.00911854103343465
sg112
F0.03343465045592705
sS'england'
p126
F0.0060790273556231
sg5
F0.00911854103343465
sg23
F0.00303951367781155
sg119
F0.00303951367781155
sg97
F0.00911854103343465
sS'half'
p127
F0.00303951367781155
sg8
F0.0060790273556231
sg75
F0.0121580547112462
sS'son'
p128
F0.00303951367781155
sg77
F0.03343465045592705
sg78
F0.00303951367781155
sg13
F0.00303951367781155
sg14
F0.00911854103343465
sg79
F0.030395136778115502
sg15
F0.015197568389057751
sg120
F0.00303951367781155
sg66
F0.00303951367781155
sg68
F0.0121580547112462
sg54
F0.0060790273556231
sg73
F0.02735562310030395
sg80
F0.00911854103343465
sg84
F0.0060790273556231
sg29
F0.00911854103343465
sg85
F0.0243161094224924
sg24
F0.0060790273556231
sg81
F0.0243161094224924
sg26
F0.0182370820668693
sg35
F0.0060790273556231
sg7
F0.00303951367781155
sg88
F0.00303951367781155
sg69
F0.00911854103343465
sg121
F0.0060790273556231
sg90
F0.00303951367781155
sg71
F0.00911854103343465
sg31
F0.00303951367781155
sg91
F0.015197568389057751
sg72
F0.00303951367781155
sg10
F0.00303951367781155
sg34
F0.015197568389057751
sg32
F0.00303951367781155
sg38
F0.015197568389057751
sg93
F0.0243161094224924
sg74
F0.00303951367781155
sg95
F0.015197568389057751
sg39
F0.0121580547112462
sg40
F0.015197568389057751
sg96
F0.00303951367781155
sg41
F0.0060790273556231
sS'child'
p129
F0.03951367781155015
sg104
F0.0060790273556231
sg42
F0.00303951367781155
sg43
F0.0121580547112462
sg44
F0.00911854103343465
sg124
F0.03343465045592705
sg92
F0.02127659574468085
sg47
F0.00303951367781155
sg48
F0.0182370820668693
sg49
F0.015197568389057751
sS'things'
p130
F0.0060790273556231
sg102
F0.0060790273556231
sg103
F0.0121580547112462
sg52
F0.00303951367781155
sS'leaving'
p131
F0.00303951367781155
sg106
F0.0121580547112462
sg82
F0.0121580547112462
sg107
F0.0060790273556231
sS'marriage'
p132
F0.02735562310030395
sg108
F0.00303951367781155
sg109
F0.03951367781155015
sg58
F0.13677811550151975
sg110
F0.02127659574468085
sg70
F0.0060790273556231
sg53
F0.00303951367781155
sg61
F0.0060790273556231
sg62
F0.0182370820668693
ssI6
(dp133
g2
F0.0064516129032258064
sg126
F0.05161290322580645
sg23
F0.0064516129032258064
sg113
F0.0064516129032258064
sg85
F0.025806451612903226
sg97
F0.01935483870967742
sg8
F0.025806451612903226
sg9
F0.03225806451612903
sg10
F0.01935483870967742
sg128
F0.05161290322580645
sg11
F0.025806451612903226
sg77
F0.012903225806451613
sg13
F0.0064516129032258064
sg4
F0.012903225806451613
sg105
F0.0064516129032258064
sg66
F0.04516129032258064
sg18
F0.025806451612903226
sg109
F0.01935483870967742
sg84
F0.0064516129032258064
sg57
F0.0064516129032258064
sg119
F0.01935483870967742
sg24
F0.0064516129032258064
sg26
F0.012903225806451613
sg35
F0.0064516129032258064
sg87
F0.01935483870967742
sg88
F0.0064516129032258064
sg69
F0.012903225806451613
sg28
F0.01935483870967742
sS'john'
p134
F0.0064516129032258064
sg89
F0.012903225806451613
sg29
F0.025806451612903226
sg90
F0.01935483870967742
sg32
F0.012903225806451613
sg34
F0.0064516129032258064
sg36
F0.0064516129032258064
sg38
F0.0064516129032258064
sg96
F0.03870967741935484
sg95
F0.0064516129032258064
sg39
F0.03225806451612903
sg127
F0.01935483870967742
sg83
F0.01935483870967742
sg100
F0.01935483870967742
sg92
F0.0064516129032258064
sg48
F0.0064516129032258064
sg101
F0.01935483870967742
sg50
F0.012903225806451613
sg12
F0.0064516129032258064
sg51
F0.0064516129032258064
sg102
F0.01935483870967742
sg52
F0.0064516129032258064
sg131
F0.012903225806451613
sg16
F0.0064516129032258064
sg107
F0.0064516129032258064
sg73
F0.012903225806451613
sg108
F0.012903225806451613
sS'henry'
p135
F0.05161290322580645
sg58
F0.025806451612903226
sg110
F0.01935483870967742
sg112
F0.0064516129032258064
sg62
F0.012903225806451613
ssI7
(dp136
g3
F0.02197802197802198
sg20
F0.016483516483516484
sg113
F0.02197802197802198
sg114
F0.03296703296703297
sg127
F0.02197802197802198
sg9
F0.04395604395604396
sg10
F0.005494505494505495
sg11
F0.016483516483516484
sg12
F0.01098901098901099
sg78
F0.01098901098901099
sg115
F0.04395604395604396
sg116
F0.016483516483516484
sg15
F0.005494505494505495
sg80
F0.01098901098901099
sg68
F0.016483516483516484
sg117
F0.038461538461538464
sg118
F0.03296703296703297
sg17
F0.03296703296703297
sg18
F0.02197802197802198
sg84
F0.016483516483516484
sS'sail'
p137
F0.038461538461538464
sg119
F0.005494505494505495
sg25
F0.005494505494505495
sg27
F0.016483516483516484
sg122
F0.027472527472527472
sg87
F0.01098901098901099
sg88
F0.005494505494505495
sg71
F0.005494505494505495
sg31
F0.005494505494505495
sg34
F0.005494505494505495
sg38
F0.027472527472527472
sg65
F0.016483516483516484
sg94
F0.06593406593406594
sg95
F0.01098901098901099
sg39
F0.016483516483516484
sg110
F0.027472527472527472
sg98
F0.03296703296703297
sg99
F0.01098901098901099
sg42
F0.01098901098901099
sg100
F0.01098901098901099
sg46
F0.005494505494505495
sg49
F0.01098901098901099
sg50
F0.005494505494505495
sg52
F0.01098901098901099
sg105
F0.02197802197802198
sg82
F0.005494505494505495
sg107
F0.01098901098901099
sg73
F0.01098901098901099
sg108
F0.005494505494505495
sg57
F0.016483516483516484
sg58
F0.03296703296703297
sg123
F0.027472527472527472
sg60
F0.005494505494505495
sg62
F0.03296703296703297
ssI8
(dp138
g2
F0.015228426395939087
sg3
F0.005076142131979695
sg126
F0.01015228426395939
sg113
F0.005076142131979695
sg119
F0.02030456852791878
sg97
F0.01015228426395939
sg8
F0.025380710659898477
sg9
F0.005076142131979695
sg10
F0.005076142131979695
sg11
F0.005076142131979695
sg104
F0.005076142131979695
sg16
F0.015228426395939087
sg20
F0.025380710659898477
sg64
F0.01015228426395939
sg79
F0.005076142131979695
sg15
F0.005076142131979695
sg105
F0.005076142131979695
sg81
F0.01015228426395939
sg118
F0.005076142131979695
sg14
F0.015228426395939087
sg19
F0.01015228426395939
sg21
F0.030456852791878174
sg67
F0.08121827411167512
sg84
F0.025380710659898477
sg85
F0.005076142131979695
sg120
F0.005076142131979695
sg25
F0.005076142131979695
sg26
F0.005076142131979695
sg27
F0.01015228426395939
sg88
F0.01015228426395939
sg69
F0.015228426395939087
sg134
F0.07614213197969544
sg53
F0.005076142131979695
sg89
F0.015228426395939087
sg29
F0.015228426395939087
sg90
F0.02030456852791878
sg31
F0.01015228426395939
sg4
F0.02030456852791878
sg61
F0.005076142131979695
sg35
F0.01015228426395939
sg36
F0.015228426395939087
sg37
F0.005076142131979695
sg38
F0.005076142131979695
sg95
F0.005076142131979695
sg127
F0.005076142131979695
sg98
F0.01015228426395939
sg99
F0.005076142131979695
sg42
F0.02030456852791878
sg43
F0.005076142131979695
sg44
F0.025380710659898477
sg100
F0.005076142131979695
sg124
F0.005076142131979695
sg112
F0.02030456852791878
sg47
F0.005076142131979695
sg50
F0.01015228426395939
sg130
F0.04568527918781726
sg103
F0.015228426395939087
sg52
F0.025380710659898477
sg131
F0.025380710659898477
sg54
F0.005076142131979695
sg55
F0.005076142131979695
sg108
F0.005076142131979695
sg57
F0.01015228426395939
sg58
F0.08629441624365482
sg75
F0.005076142131979695
sg70
F0.025380710659898477
sg60
F0.005076142131979695
sg62
F0.005076142131979695
ssI9
(dp139
g115
F0.03571428571428571
sg114
F0.03571428571428571
sg13
F0.03571428571428571
sg65
F0.07142857142857142
sg81
F0.03571428571428571
sg19
F0.03571428571428571
sg130
F0.03571428571428571
sg137
F0.03571428571428571
sg120
F0.03571428571428571
sg28
F0.03571428571428571
sg89
F0.03571428571428571
sg30
F0.17857142857142858
sg33
F0.03571428571428571
sg34
F0.07142857142857142
sg38
F0.03571428571428571
sg94
F0.03571428571428571
sg124
F0.03571428571428571
sg101
F0.03571428571428571
sg105
F0.03571428571428571
sg54
F0.03571428571428571
sg53
F0.03571428571428571
sg61
F0.03571428571428571
ssI10
(dp140
g20
F0.05555555555555555
sg85
F0.07407407407407407
sg8
F0.037037037037037035
sg12
F0.05555555555555555
sg78
F0.018518518518518517
sg13
F0.018518518518518517
sg116
F0.037037037037037035
sg15
F0.018518518518518517
sg80
F0.018518518518518517
sg68
F0.018518518518518517
sg119
F0.037037037037037035
sg24
F0.037037037037037035
sg120
F0.018518518518518517
sg27
F0.018518518518518517
sg122
F0.037037037037037035
sg87
F0.018518518518518517
sg121
F0.12962962962962962
sg71
F0.05555555555555555
sg31
F0.018518518518518517
sg91
F0.018518518518518517
sg61
F0.018518518518518517
sg32
F0.018518518518518517
sg65
F0.05555555555555555
sg92
F0.037037037037037035
sg51
F0.05555555555555555
sg102
F0.018518518518518517
sg132
F0.018518518518518517
sg56
F0.018518518518518517
sg110
F0.018518518518518517
ss.