(dp0
I1
(dp1
S'house'
p2
F0.014778325123152709
sS'mind'
p3
F0.029556650246305417
sS'soon'
p4
F0.019704433497536946
sS'brought'
p5
F0.019704433497536946
sS'heard'
p6
F0.0049261083743842365
sS'want'
p7
F0.0049261083743842365
sS'church'
p8
F0.014778325123152709
sS'seen'
p9
F0.019704433497536946
sS'situation'
p10
F0.009852216748768473
sS'end'
p11
F0.03940886699507389
sS'god'
p12
F0.024630541871921183
sS'began'
p13
F0.009852216748768473
sS'expected'
p14
F0.014778325123152709
sS'white'
p15
F0.019704433497536946
sS'hope'
p16
F0.03940886699507389
sS'gave'
p17
F0.009852216748768473
sS'power'
p18
F0.07389162561576355
sS'means'
p19
F0.014778325123152709
sS'took'
p20
F0.014778325123152709
sS'moment'
p21
F0.019704433497536946
sS'part'
p22
F0.014778325123152709
sS'hands'
p23
F0.0049261083743842365
sS'put'
p24
F0.0049261083743842365
sS'friends'
p25
F0.0049261083743842365
sS'present'
p26
F0.034482758620689655
sS'women'
p27
F0.019704433497536946
sS'sister'
p28
F0.009852216748768473
sS'land'
p29
F0.0049261083743842365
sS'abandoned'
p30
F0.014778325123152709
sS'lost'
p31
F0.009852216748768473
sS'country'
p32
F0.0049261083743842365
sS'days'
p33
F0.0049261083743842365
sS'thought'
p34
F0.029556650246305417
sS'place'
p35
F0.054187192118226604
sS'things'
p36
F0.014778325123152709
sS'abandon'
p37
F0.30049261083743845
sS'found'
p38
F0.0049261083743842365
sS'told'
p39
F0.0049261083743842365
sS'think'
p40
F0.029556650246305417
sS'left'
p41
F0.009852216748768473
ssI2
(dp42
S'deck'
p43
F0.00546448087431694
sg3
F0.00546448087431694
sg5
F0.01092896174863388
sS'course'
p44
F0.02185792349726776
sS'manner'
p45
F0.0273224043715847
sg7
F0.00546448087431694
sS'home'
p46
F0.01639344262295082
sS'saw'
p47
F0.01092896174863388
sS'children'
p48
F0.00546448087431694
sS'death'
p49
F0.02185792349726776
sg36
F0.03278688524590164
sg13
F0.01639344262295082
sS'able'
p50
F0.01092896174863388
sg16
F0.03278688524590164
sg17
F0.03278688524590164
sg18
F0.00546448087431694
sg19
F0.02185792349726776
sS'night'
p51
F0.02185792349726776
sg20
F0.03825136612021858
sg21
F0.01092896174863388
sg22
F0.0546448087431694
sS'child'
p52
F0.0273224043715847
sS'hopes'
p53
F0.00546448087431694
sg25
F0.02185792349726776
sg27
F0.02185792349726776
sS'case'
p54
F0.01092896174863388
sg30
F0.26229508196721313
sg31
F0.01639344262295082
sg6
F0.01092896174863388
sg32
F0.00546448087431694
sg24
F0.01639344262295082
sg33
F0.01092896174863388
sg34
F0.04371584699453552
sg35
F0.01092896174863388
sS'mother'
p55
F0.00546448087431694
sg37
F0.00546448087431694
sg38
F0.0273224043715847
sg40
F0.04918032786885246
sg41
F0.03825136612021858
ssI3
(dp56
S'england'
p57
F0.05
sS'father'
p58
F0.05555555555555555
sg3
F0.03888888888888889
sg4
F0.03333333333333333
sg5
F0.022222222222222223
sg6
F0.022222222222222223
sg45
F0.016666666666666666
sg9
F0.011111111111111112
sS'vessel'
p59
F0.005555555555555556
sg46
F0.03333333333333333
sS'ship'
p60
F0.005555555555555556
sg47
F0.011111111111111112
sg48
F0.022222222222222223
sg49
F0.005555555555555556
sg11
F0.016666666666666666
sg12
F0.011111111111111112
sg13
F0.03333333333333333
sg50
F0.022222222222222223
sg2
F0.05555555555555555
sg14
F0.005555555555555556
sg17
F0.022222222222222223
sg51
F0.05
sg20
F0.016666666666666666
sS'water'
p61
F0.011111111111111112
sg21
F0.022222222222222223
sg22
F0.022222222222222223
sg23
F0.044444444444444446
sg53
F0.016666666666666666
sg25
F0.005555555555555556
sg27
F0.011111111111111112
sg28
F0.06111111111111111
sg30
F0.011111111111111112
sg31
F0.022222222222222223
sg44
F0.005555555555555556
sg32
F0.005555555555555556
sg24
F0.016666666666666666
sg33
F0.027777777777777776
sg34
F0.011111111111111112
sg35
F0.016666666666666666
sg55
F0.09444444444444444
sg41
F0.027777777777777776
ssI4
(dp62
g57
F0.03896103896103896
sg44
F0.012987012987012988
sg7
F0.03896103896103896
sg8
F0.14285714285714285
sg9
F0.012987012987012988
sg48
F0.012987012987012988
sg49
F0.012987012987012988
sg12
F0.12987012987012986
sg13
F0.012987012987012988
sS'john'
p63
F0.2077922077922078
sg39
F0.012987012987012988
sg18
F0.03896103896103896
sg19
F0.012987012987012988
sg23
F0.03896103896103896
sg53
F0.012987012987012988
sg54
F0.025974025974025976
sg29
F0.06493506493506493
sg31
F0.012987012987012988
sg35
F0.012987012987012988
sg37
F0.06493506493506493
sg17
F0.012987012987012988
sg40
F0.012987012987012988
sg41
F0.05194805194805195
ssI5
(dp64
S'sea'
p65
F0.0967741935483871
sg4
F0.08602150537634409
sg45
F0.010752688172043012
sg7
F0.043010752688172046
sg59
F0.021505376344086023
sg60
F0.06451612903225806
sg47
F0.03225806451612903
sg13
F0.03225806451612903
sS'board'
p66
F0.06451612903225806
sg14
F0.010752688172043012
sg39
F0.010752688172043012
sg20
F0.03225806451612903
sg61
F0.15053763440860216
sg22
F0.043010752688172046
sg38
F0.08602150537634409
sg53
F0.06451612903225806
sg25
F0.010752688172043012
sg33
F0.010752688172043012
sg35
F0.010752688172043012
sg51
F0.03225806451612903
sg37
F0.021505376344086023
sg10
F0.053763440860215055
sg41
F0.010752688172043012
ssI6
(dp67
g2
F0.027777777777777776
sg52
F0.07407407407407407
sg3
F0.018518518518518517
sg4
F0.009259259259259259
sg44
F0.09259259259259259
sg7
F0.018518518518518517
sg9
F0.018518518518518517
sg46
F0.06481481481481481
sg60
F0.009259259259259259
sg48
F0.06481481481481481
sg49
F0.009259259259259259
sg36
F0.027777777777777776
sg58
F0.037037037037037035
sg14
F0.018518518518518517
sg39
F0.06481481481481481
sg19
F0.027777777777777776
sg55
F0.027777777777777776
sg20
F0.009259259259259259
sg21
F0.009259259259259259
sg23
F0.009259259259259259
sg26
F0.037037037037037035
sg54
F0.08333333333333333
sg30
F0.046296296296296294
sg32
F0.027777777777777776
sg33
F0.018518518518518517
sg34
F0.009259259259259259
sg35
F0.027777777777777776
sg51
F0.009259259259259259
sg37
F0.05555555555555555
sg38
F0.027777777777777776
sg41
F0.018518518518518517
ssI7
(dp68
g2
F0.017857142857142856
sg3
F0.03571428571428571
sg4
F0.017857142857142856
sg6
F0.07142857142857142
sg45
F0.017857142857142856
sg7
F0.05357142857142857
sg59
F0.03571428571428571
sg46
F0.017857142857142856
sg60
F0.03571428571428571
sg47
F0.017857142857142856
sg49
F0.07142857142857142
sg50
F0.08928571428571429
sg66
F0.03571428571428571
sg15
F0.017857142857142856
sg16
F0.017857142857142856
sg18
F0.017857142857142856
sg23
F0.017857142857142856
sg25
F0.017857142857142856
sg28
F0.017857142857142856
sg29
F0.017857142857142856
sg32
F0.10714285714285714
sg33
F0.03571428571428571
sg58
F0.10714285714285714
sg34
F0.03571428571428571
sg37
F0.07142857142857142
ssI8
(dp69
g43
F0.057291666666666664
sg3
F0.005208333333333333
sg4
F0.07291666666666667
sg5
F0.03125
sg6
F0.020833333333333332
sg45
F0.026041666666666668
sg65
F0.020833333333333332
sg59
F0.041666666666666664
sg9
F0.020833333333333332
sg60
F0.046875
sg47
F0.07291666666666667
sg48
F0.010416666666666666
sg10
F0.020833333333333332
sg49
F0.026041666666666668
sg11
F0.005208333333333333
sg12
F0.005208333333333333
sg50
F0.005208333333333333
sg66
F0.026041666666666668
sg14
F0.020833333333333332
sg15
F0.036458333333333336
sg16
F0.005208333333333333
sg17
F0.026041666666666668
sg20
F0.020833333333333332
sg61
F0.015625
sg21
F0.010416666666666666
sg23
F0.015625
sg24
F0.052083333333333336
sg25
F0.015625
sg26
F0.005208333333333333
sg27
F0.010416666666666666
sg54
F0.005208333333333333
sg29
F0.020833333333333332
sg30
F0.010416666666666666
sg31
F0.005208333333333333
sg32
F0.046875
sg33
F0.010416666666666666
sg34
F0.052083333333333336
sg35
F0.010416666666666666
sg51
F0.005208333333333333
sg38
F0.015625
sg39
F0.03125
sg40
F0.026041666666666668
sg41
F0.010416666666666666
ss.