(dp0
I1
(dp1
S'england'
p2
F0.02830188679245283
sS'deck'
p3
F0.009433962264150943
sS'soon'
p4
F0.009433962264150943
sS'course'
p5
F0.009433962264150943
sS'want'
p6
F0.03773584905660377
sS'church'
p7
F0.12264150943396226
sS'seen'
p8
F0.009433962264150943
sS'ship'
p9
F0.009433962264150943
sS'death'
p10
F0.02830188679245283
sS'end'
p11
F0.05660377358490566
sS'god'
p12
F0.14150943396226415
sS'began'
p13
F0.018867924528301886
sS'expected'
p14
F0.018867924528301886
sS'john'
p15
F0.1509433962264151
sS'hope'
p16
F0.02830188679245283
sS'told'
p17
F0.018867924528301886
sS'power'
p18
F0.02830188679245283
sS'means'
p19
F0.018867924528301886
sS'part'
p20
F0.009433962264150943
sS'hands'
p21
F0.02830188679245283
sS'present'
p22
F0.02830188679245283
sS'land'
p23
F0.03773584905660377
sS'lost'
p24
F0.009433962264150943
sS'thought'
p25
F0.018867924528301886
sS'abandon'
p26
F0.09433962264150944
sS'found'
p27
F0.009433962264150943
sS'left'
p28
F0.018867924528301886
ssI2
(dp29
S'things'
p30
F0.00851063829787234
sg2
F0.00425531914893617
sS'father'
p31
F0.00425531914893617
sS'child'
p32
F0.02553191489361702
sS'mind'
p33
F0.029787234042553193
sg4
F0.02127659574468085
sS'brought'
p34
F0.00425531914893617
sS'heard'
p35
F0.00851063829787234
sS'manner'
p36
F0.02553191489361702
sS'home'
p37
F0.029787234042553193
sg9
F0.00425531914893617
sg12
F0.00851063829787234
sg13
F0.02127659574468085
sS'able'
p38
F0.00425531914893617
sS'white'
p39
F0.02127659574468085
sg16
F0.02127659574468085
sS'gave'
p40
F0.029787234042553193
sS'night'
p41
F0.02553191489361702
sS'took'
p42
F0.03404255319148936
sS'moment'
p43
F0.02127659574468085
sg20
F0.03404255319148936
sg21
F0.00425531914893617
sS'friends'
p44
F0.02553191489361702
sS'women'
p45
F0.03829787234042553
sS'case'
p46
F0.04680851063829787
sS'sister'
p47
F0.00851063829787234
sS'abandoned'
p48
F0.22127659574468084
sg24
F0.02127659574468085
sg5
F0.03404255319148936
sS'country'
p49
F0.02127659574468085
sg25
F0.03404255319148936
sS'place'
p50
F0.0425531914893617
sS'mother'
p51
F0.01276595744680851
sg26
F0.00851063829787234
sg27
F0.029787234042553193
sg17
F0.00425531914893617
sS'think'
p52
F0.00851063829787234
sg28
F0.05106382978723404
ssI3
(dp53
S'house'
p54
F0.08035714285714286
sg33
F0.008928571428571428
sg4
F0.017857142857142856
sg35
F0.026785714285714284
sg36
F0.017857142857142856
sg8
F0.008928571428571428
sg37
F0.05357142857142857
sS'saw'
p55
F0.008928571428571428
sS'children'
p56
F0.05357142857142857
sg11
F0.017857142857142856
sg13
F0.03571428571428571
sg38
F0.008928571428571428
sg14
F0.017857142857142856
sg16
F0.008928571428571428
sg40
F0.008928571428571428
sg41
F0.017857142857142856
sS'water'
p57
F0.017857142857142856
sg43
F0.008928571428571428
sg20
F0.026785714285714284
sg21
F0.0625
sS'hopes'
p58
F0.026785714285714284
sg44
F0.008928571428571428
sg47
F0.08035714285714286
sg48
F0.05357142857142857
sg49
F0.017857142857142856
sS'put'
p59
F0.03571428571428571
sS'days'
p60
F0.017857142857142856
sg31
F0.08928571428571429
sg51
F0.13392857142857142
sg17
F0.008928571428571428
sg28
F0.017857142857142856
ssI4
(dp61
g6
F0.031914893617021274
sg4
F0.0425531914893617
sg34
F0.031914893617021274
sg36
F0.02127659574468085
sS'sea'
p62
F0.09574468085106383
sS'vessel'
p63
F0.031914893617021274
sg9
F0.05319148936170213
sg55
F0.02127659574468085
sS'situation'
p64
F0.05319148936170213
sg10
F0.0425531914893617
sg11
F0.02127659574468085
sg13
F0.031914893617021274
sg38
F0.010638297872340425
sS'board'
p65
F0.05319148936170213
sg14
F0.010638297872340425
sg19
F0.010638297872340425
sg42
F0.0425531914893617
sg57
F0.13829787234042554
sg43
F0.010638297872340425
sg20
F0.031914893617021274
sg21
F0.010638297872340425
sg58
F0.06382978723404255
sg60
F0.010638297872340425
sg50
F0.010638297872340425
sg41
F0.02127659574468085
sg26
F0.031914893617021274
sg27
F0.05319148936170213
sg28
F0.010638297872340425
ssI5
(dp66
g54
F0.03187250996015936
sg33
F0.01593625498007968
sg4
F0.01195219123505976
sg34
F0.00796812749003984
sg35
F0.00796812749003984
sg6
F0.01195219123505976
sg7
F0.00398406374501992
sg63
F0.00398406374501992
sg37
F0.00398406374501992
sg55
F0.01593625498007968
sg56
F0.02390438247011952
sg8
F0.02390438247011952
sg10
F0.00796812749003984
sg11
F0.00398406374501992
sg30
F0.0398406374501992
sg38
F0.01593625498007968
sg16
F0.0199203187250996
sg40
F0.00796812749003984
sg18
F0.06374501992031872
sg19
F0.02390438247011952
sg42
F0.01593625498007968
sg57
F0.00398406374501992
sg43
F0.01593625498007968
sg20
F0.00796812749003984
sg21
F0.00796812749003984
sg58
F0.00796812749003984
sg44
F0.00796812749003984
sg22
F0.02390438247011952
sg45
F0.01195219123505976
sg46
F0.00796812749003984
sg47
F0.00398406374501992
sg23
F0.01195219123505976
sg24
F0.00398406374501992
sg5
F0.027888446215139442
sg49
F0.00398406374501992
sg59
F0.01195219123505976
sg60
F0.03187250996015936
sg31
F0.00398406374501992
sg25
F0.035856573705179286
sg50
F0.03187250996015936
sg41
F0.027888446215139442
sg26
F0.24701195219123506
sg64
F0.00796812749003984
sg17
F0.0199203187250996
sg52
F0.055776892430278883
sg28
F0.01593625498007968
ssI6
(dp67
g47
F0.03333333333333333
sg48
F0.03333333333333333
sg18
F0.03333333333333333
sg49
F0.1
sg33
F0.06666666666666667
sg38
F0.06666666666666667
sg31
F0.13333333333333333
sg34
F0.03333333333333333
sg35
F0.1
sg65
F0.06666666666666667
sg6
F0.1
sg36
F0.03333333333333333
sg27
F0.03333333333333333
sg9
F0.06666666666666667
sg55
F0.03333333333333333
sg63
F0.03333333333333333
sg40
F0.03333333333333333
ssI7
(dp68
g46
F0.04
sg2
F0.04
sg19
F0.04
sg37
F0.12
sg51
F0.04
sg60
F0.04
sg42
F0.04
sg8
F0.04
sg14
F0.04
sg50
F0.04
sg32
F0.28
sg26
F0.04
sg27
F0.08
sg56
F0.04
sg22
F0.08
ssI8
(dp69
g2
F0.125
sg31
F0.07142857142857142
sg33
F0.07142857142857142
sg4
F0.08928571428571429
sg34
F0.05357142857142857
sg35
F0.017857142857142856
sg10
F0.03571428571428571
sg13
F0.017857142857142856
sg38
F0.03571428571428571
sg14
F0.017857142857142856
sg39
F0.017857142857142856
sg16
F0.03571428571428571
sg40
F0.03571428571428571
sg19
F0.017857142857142856
sg51
F0.03571428571428571
sg42
F0.017857142857142856
sg20
F0.05357142857142857
sg21
F0.017857142857142856
sg47
F0.017857142857142856
sg48
F0.017857142857142856
sg24
F0.05357142857142857
sg49
F0.017857142857142856
sg60
F0.017857142857142856
sg25
F0.017857142857142856
sg50
F0.017857142857142856
sg41
F0.017857142857142856
sg26
F0.017857142857142856
sg27
F0.017857142857142856
sg28
F0.017857142857142856
ssI9
(dp70
g6
F0.005494505494505495
sg3
F0.06043956043956044
sg33
F0.005494505494505495
sg4
F0.07692307692307693
sg34
F0.03296703296703297
sg35
F0.02197802197802198
sg36
F0.02197802197802198
sg62
F0.02197802197802198
sg63
F0.04395604395604396
sg8
F0.02197802197802198
sg9
F0.054945054945054944
sg55
F0.07692307692307693
sg56
F0.01098901098901099
sg64
F0.02197802197802198
sg10
F0.027472527472527472
sg11
F0.005494505494505495
sg12
F0.005494505494505495
sg38
F0.005494505494505495
sg65
F0.03296703296703297
sg14
F0.02197802197802198
sg39
F0.027472527472527472
sg40
F0.027472527472527472
sg42
F0.016483516483516484
sg57
F0.016483516483516484
sg43
F0.01098901098901099
sg20
F0.005494505494505495
sg21
F0.01098901098901099
sg59
F0.054945054945054944
sg44
F0.01098901098901099
sg22
F0.005494505494505495
sg23
F0.02197802197802198
sg24
F0.005494505494505495
sg49
F0.04945054945054945
sg60
F0.01098901098901099
sg25
F0.04945054945054945
sg50
F0.01098901098901099
sg27
F0.016483516483516484
sg17
F0.038461538461538464
sg52
F0.027472527472527472
sg28
F0.005494505494505495
ssI10
(dp71
g39
F1.0
ss.