(dp0
I1
(dp1
S'bat'
p2
F0.5784313725490197
sS'hit'
p3
F0.07352941176470588
sS'look'
p4
F0.08823529411764706
sS'swing'
p5
F0.05392156862745098
sS'hand'
p6
F0.07352941176470588
sS'game'
p7
F0.0784313725490196
sS'basebal'
p8
F0.05392156862745098
ss.