(dp0
I1
(dp1
S'woman'
p2
F0.05803571428571429
sS'patient'
p3
F0.004464285714285714
sS'house'
p4
F0.049107142857142856
sS'later'
p5
F0.049107142857142856
sS'days'
p6
F0.0625
sS'think'
p7
F0.049107142857142856
sS'thought'
p8
F0.05357142857142857
sS'health'
p9
F0.013392857142857142
sS'date'
p10
F0.6026785714285714
sS'public'
p11
F0.004464285714285714
sS'women'
p12
F0.05357142857142857
ssI2
(dp13
S'students'
p14
F0.08108108108108109
sS'reading'
p15
F0.5135135135135135
sS'fluency'
p16
F0.3783783783783784
sS'period'
p17
F0.02702702702702703
ssI3
(dp18
S'websites'
p19
F0.17567567567567569
sg9
F0.2702702702702703
sS'library'
p20
F0.20270270270270271
sS'online'
p21
F0.08108108108108109
sg10
F0.05405405405405406
sg11
F0.21621621621621623
ssI4
(dp22
g3
F0.2777777777777778
sg6
F0.027777777777777776
sg17
F0.1111111111111111
sS'patients'
p23
F0.3888888888888889
sg9
F0.027777777777777776
sg10
F0.16666666666666666
ssI5
(dp24
g7
F0.011363636363636364
sg14
F0.022727272727272728
sg4
F0.011363636363636364
sS'tree'
p25
F0.20454545454545456
sg6
F0.011363636363636364
sg17
F0.045454545454545456
sS'palm'
p26
F0.36363636363636365
sg10
F0.07954545454545454
sS'palm_#1'
p27
F0.23863636363636365
sg11
F0.011363636363636364
ssI6
(dp28
g15
F0.058823529411764705
sg14
F0.47058823529411764
sg5
F0.058823529411764705
sg17
F0.11764705882352941
sg21
F0.29411764705882354
ss.