(dp0
I1
(dp1
S'tree'
p2
<<<<<<< HEAD
F0.034482758620689655
sS'patients'
p3
F0.4827586206896552
sS'patient'
p4
F0.3448275862068966
sS'days'
p5
F0.034482758620689655
sS'period'
p6
F0.10344827586206896
ssI2
(dp7
S'woman'
p8
F0.012987012987012988
sg2
F0.22077922077922077
sg6
F0.06493506493506493
sS'public'
p9
F0.012987012987012988
sS'palm'
p10
F0.4025974025974026
sS'date'
p11
F0.012987012987012988
sS'palm_#1'
p12
F0.2597402597402597
sS'think'
p13
F0.012987012987012988
ssI3
(dp14
g8
F0.05
sg4
F0.004166666666666667
sS'house'
p15
F0.05
sS'later'
p16
F0.05
sg5
F0.0625
sg6
F0.008333333333333333
sS'thought'
p17
F0.05
sS'health'
p18
F0.004166666666666667
sS'online'
p19
F0.004166666666666667
sg11
F0.6083333333333333
sg10
F0.004166666666666667
sS'reading'
p20
F0.008333333333333333
sg13
F0.04583333333333333
sS'women'
p21
F0.05
=======
F0.05241935483870968
sS'patient'
p3
F0.020161290322580645
sS'students'
p4
F0.004032258064516129
sS'house'
p5
F0.04838709677419355
sS'later'
p6
F0.04032258064516129
sS'days'
p7
F0.06451612903225806
sS'period'
p8
F0.020161290322580645
sS'thought'
p9
F0.04838709677419355
sS'health'
p10
F0.008064516129032258
sS'date'
p11
F0.592741935483871
sS'reading'
p12
F0.004032258064516129
sS'think'
p13
F0.04838709677419355
sS'women'
p14
F0.04838709677419355
ssI2
(dp15
S'palm_#1'
p16
F0.2702702702702703
sS'palm'
p17
F0.4189189189189189
sg8
F0.05405405405405406
sS'tree'
p18
F0.24324324324324326
sS'public'
p19
F0.013513513513513514
ssI3
(dp20
g4
F0.625
sg6
F0.0625
sS'online'
p21
F0.3125
>>>>>>> 6250c306f063bd059a31044f92337225cedc986b
ssI4
(dp22
S'library'
p23
F0.19230769230769232
<<<<<<< HEAD
sg18
F0.2948717948717949
sS'websites'
p24
F0.16666666666666666
sg19
F0.07692307692307693
sg11
F0.038461538461538464
sg12
F0.01282051282051282
sg9
F0.21794871794871795
ssI5
(dp25
g11
F0.05405405405405406
sS'students'
p26
F0.05405405405405406
sg20
F0.4864864864864865
sS'fluency'
p27
F0.3783783783783784
sg6
F0.02702702702702703
ssI6
(dp28
g26
F0.7333333333333333
sg19
F0.26666666666666666
=======
sg17
F0.01282051282051282
sS'websites'
p24
F0.16666666666666666
sg21
F0.07692307692307693
sg11
F0.05128205128205128
sg10
F0.2692307692307692
sg16
F0.01282051282051282
sg19
F0.21794871794871795
ssI5
(dp25
g3
F0.25
sS'patients'
p26
F0.5833333333333334
sg6
F0.041666666666666664
sg10
F0.041666666666666664
sg8
F0.08333333333333333
ssI6
(dp27
g11
F0.027777777777777776
sg4
F0.05555555555555555
sg12
F0.5277777777777778
sS'fluency'
p28
F0.3888888888888889
>>>>>>> 6250c306f063bd059a31044f92337225cedc986b
ss.