(dp0
I1
(dp1
S'woman'
p2
F0.05241935483870968
sS'patient'
p3
F0.020161290322580645
sS'students'
p4
F0.004032258064516129
sS'house'
p5
F0.04838709677419355
sS'later'
p6
F0.04032258064516129
sS'days'
p7
F0.06451612903225806
sS'period'
p8
F0.020161290322580645
sS'thought'
p9
F0.04838709677419355
sS'health'
p10
F0.008064516129032258
sS'date'
p11
F0.592741935483871
sS'reading'
p12
F0.004032258064516129
sS'think'
p13
F0.04838709677419355
sS'women'
p14
F0.04838709677419355
ssI2
(dp15
S'palm_#1'
p16
F0.2702702702702703
sS'palm'
p17
F0.4189189189189189
sg8
F0.05405405405405406
sS'tree'
p18
F0.24324324324324326
sS'public'
p19
F0.013513513513513514
ssI3
(dp20
g4
F0.625
sg6
F0.0625
sS'online'
p21
F0.3125
ssI4
(dp22
S'library'
p23
F0.19230769230769232
sg17
F0.01282051282051282
sS'websites'
p24
F0.16666666666666666
sg21
F0.07692307692307693
sg11
F0.05128205128205128
sg10
F0.2692307692307692
sg16
F0.01282051282051282
sg19
F0.21794871794871795
ssI5
(dp25
g3
F0.25
sS'patients'
p26
F0.5833333333333334
sg6
F0.041666666666666664
sg10
F0.041666666666666664
sg8
F0.08333333333333333
ssI6
(dp27
g11
F0.027777777777777776
sg4
F0.05555555555555555
sg12
F0.5277777777777778
sS'fluency'
p28
F0.3888888888888889
ss.