(dp0
I1
(dp1
S'tree'
p2
F0.034482758620689655
sS'patients'
p3
F0.4827586206896552
sS'patient'
p4
F0.3448275862068966
sS'days'
p5
F0.034482758620689655
sS'period'
p6
F0.10344827586206896
ssI2
(dp7
S'woman'
p8
F0.012987012987012988
sg2
F0.22077922077922077
sg6
F0.06493506493506493
sS'public'
p9
F0.012987012987012988
sS'palm'
p10
F0.4025974025974026
sS'date'
p11
F0.012987012987012988
sS'palm_#1'
p12
F0.2597402597402597
sS'think'
p13
F0.012987012987012988
ssI3
(dp14
g8
F0.05
sg4
F0.004166666666666667
sS'house'
p15
F0.05
sS'later'
p16
F0.05
sg5
F0.0625
sg6
F0.008333333333333333
sS'thought'
p17
F0.05
sS'health'
p18
F0.004166666666666667
sS'online'
p19
F0.004166666666666667
sg11
F0.6083333333333333
sg10
F0.004166666666666667
sS'reading'
p20
F0.008333333333333333
sg13
F0.04583333333333333
sS'women'
p21
F0.05
ssI4
(dp22
S'library'
p23
F0.19230769230769232
sg18
F0.2948717948717949
sS'websites'
p24
F0.16666666666666666
sg19
F0.07692307692307693
sg11
F0.038461538461538464
sg12
F0.01282051282051282
sg9
F0.21794871794871795
ssI5
(dp25
g11
F0.05405405405405406
sS'students'
p26
F0.05405405405405406
sg20
F0.4864864864864865
sS'fluency'
p27
F0.3783783783783784
sg6
F0.02702702702702703
ssI6
(dp28
g26
F0.7333333333333333
sg19
F0.26666666666666666
ss.