(dp0
I1
(dp1
S'And'
p2
F0.016877637130801686
sS'This'
p3
F0.06329113924050633
sS'palm_#1'
p4
F0.05485232067510549
sS'date,'
p5
F0.03375527426160337
sS'public'
p6
F0.008438818565400843
sS'palm'
p7
F0.10548523206751055
sS'She'
p8
F0.004219409282700422
sS'online'
p9
F0.02109704641350211
sS'date'
p10
F0.4050632911392405
sS"I'm"
p11
F0.004219409282700422
sS'#The'
p12
F0.06751054852320675
sS'The'
p13
F0.21518987341772153
ssI2
(dp14
S'library'
p15
F0.22727272727272727
sg5
F0.015151515151515152
sS'health'
p16
F0.3181818181818182
sg9
F0.09090909090909091
sg12
F0.10606060606060606
sg6
F0.24242424242424243
ssI3
(dp17
S'reading'
p18
F0.40476190476190477
sg12
F0.16666666666666666
sg5
F0.11904761904761904
sS'fluency'
p19
F0.30952380952380953
ssI4
(dp20
g2
F0.09090909090909091
sS'woman'
p21
F0.125
sS"it's"
p22
F0.125
sS'But'
p23
F0.2727272727272727
sg5
F0.056818181818181816
sg8
F0.13636363636363635
sg10
F0.011363636363636364
sg11
F0.10227272727272728
sg18
F0.011363636363636364
sg13
F0.06818181818181818
ss.