(dp0
I1
(dp1
S'p_c_#2'
p2
F0.0029403902699812884
sS'p_c_#3'
p3
F0.0037423148890670943
sS'help'
p4
F0.0016038492381716118
sS'food'
p5
F0.0037423148890670943
sS'money'
p6
F0.0018711574445335472
sS'observed'
p7
F0.0005346164127238706
sS'soon'
p8
F0.0013365410318096765
sS'yellow'
p9
F0.0037423148890670943
sS'sperm'
p10
F0.004276931301790965
sS'bring'
p11
F0.0008019246190858059
sS'mile'
p12
F0.0008019246190858059
sS'identify'
p13
F0.0013365410318096765
sS'looks'
p14
F0.0037423148890670943
sS'roasted'
p15
F0.0013365410318096765
sS'earth'
p16
F0.0032076984763432237
sS'yes'
p17
F0.0021384656508954825
sS'research'
p18
F0.005880780539962577
sS'fine'
p19
F0.0024057738572574178
sS'birds'
p20
F0.008821170809943865
sS'ground'
p21
F0.0002673082063619353
sS'talking'
p22
F0.0016038492381716118
sS'superior'
p23
F0.0016038492381716118
sS'cut'
p24
F0.0010692328254477412
sS'police'
p25
F0.0010692328254477412
sS'field'
p26
F0.0016038492381716118
sS'front'
p27
F0.0005346164127238706
sS'rental'
p28
F0.0002673082063619353
sS'trying'
p29
F0.0013365410318096765
sS'white'
p30
F0.021384656508954825
sS'sky'
p31
F0.0021384656508954825
sS'actually'
p32
F0.0002673082063619353
sS'late'
p33
F0.003475006682705159
sS'black'
p34
F0.0002673082063619353
sS'white_#-1'
p35
F0.00801924619085806
sS'photo'
p36
F0.0013365410318096765
sS'include'
p37
F0.0008019246190858059
sS'pigeons'
p38
F0.00801924619085806
sS'texas'
p39
F0.0005346164127238706
sS'carolina'
p40
F0.0024057738572574178
sS'started'
p41
F0.0002673082063619353
sS'brown'
p42
F0.0010692328254477412
sS'coop'
p43
F0.0002673082063619353
sS'sense'
p44
F0.0024057738572574178
sS'goes'
p45
F0.0018711574445335472
sS'gray'
p46
F0.002673082063619353
sS'beat'
p47
F0.0024057738572574178
sS'big'
p48
F0.0032076984763432237
sS'dark'
p49
F0.0021384656508954825
sS'couric'
p50
F0.00400962309542903
sS'game'
p51
F0.0024057738572574178
sS'makes'
p52
F0.0005346164127238706
sS'half'
p53
F0.003475006682705159
sS'arriving'
p54
F0.0013365410318096765
sS'falcon'
p55
F0.0048115477145148355
sS'drinking'
p56
F0.0005346164127238706
sS'parked'
p57
F0.0002673082063619353
sS'killed'
p58
F0.0005346164127238706
sS'nearly'
p59
F0.0010692328254477412
sS'room'
p60
F0.0010692328254477412
sS'feet'
p61
F0.0002673082063619353
sS'parrot'
p62
F0.0016038492381716118
sS'lost'
p63
F0.007484629778134189
sS'level'
p64
F0.0029403902699812884
sS'morning'
p65
F0.0008019246190858059
sS'large'
p66
F0.0048115477145148355
sS'bad'
p67
F0.0037423148890670943
sS'miles'
p68
F0.0002673082063619353
sS'common'
p69
F0.0024057738572574178
sS'clay'
p70
F0.0002673082063619353
sS'jaycox'
p71
F0.0002673082063619353
sS'radio'
p72
F0.0010692328254477412
sS'guy'
p73
F0.0016038492381716118
sS'p_c_#-3'
p74
F0.002673082063619353
sS'inside'
p75
F0.0002673082063619353
sS'husband'
p76
F0.0002673082063619353
sS'luck'
p77
F0.0005346164127238706
sS'insane'
p78
F0.0032076984763432237
sS'small'
p79
F0.0013365410318096765
sS'rock_#-1'
p80
F0.0037423148890670943
sS'absolutely'
p81
F0.0021384656508954825
sS'turned'
p82
F0.0021384656508954825
sS'hard'
p83
F0.0021384656508954825
sS'feathers'
p84
F0.0005346164127238706
sS'p_c'
p85
F0.07110398289227479
sS'dead'
p86
F0.005078855920876771
sS'split'
p87
F0.0032076984763432237
sS'hair'
p88
F0.0008019246190858059
sS'culture'
p89
F0.004276931301790965
sS'tailed_#-1'
p90
F0.0032076984763432237
sS'design'
p91
F0.0005346164127238706
sS'result'
p92
F0.0010692328254477412
sS'band_#-2'
p93
F0.0032076984763432237
sS'okay'
p94
F0.0013365410318096765
sS'girl'
p95
F0.0005346164127238706
sS'thing'
p96
F0.0008019246190858059
sS'wears'
p97
F0.0029403902699812884
sS'blue'
p98
F0.0056134723336006415
sS'living'
p99
F0.0045442395081529
sS'length'
p100
F0.003475006682705159
sS'position'
p101
F0.007217321571772253
sS'singing'
p102
F0.002673082063619353
sS'pigeon'
p103
F0.07992515370221866
sS'stops'
p104
F0.0008019246190858059
sS'find'
p105
F0.004276931301790965
sS'cell'
p106
F0.006148088746324512
sS'waiting'
p107
F0.0016038492381716118
sS'indian'
p108
F0.0029403902699812884
sS'white_#2'
p109
F0.0032076984763432237
sS'closed'
p110
F0.0002673082063619353
sS'scientists'
p111
F0.0029403902699812884
sS'fragments'
p112
F0.0032076984763432237
sS'staff'
p113
F0.0008019246190858059
sS'racing'
p114
F0.0029403902699812884
sS'bird'
p115
F0.006148088746324512
sS'p_c_#-2'
p116
F0.0037423148890670943
sS'officer'
p117
F0.0016038492381716118
sS'route'
p118
F0.0008019246190858059
sS'full'
p119
F0.0010692328254477412
sS'creating'
p120
F0.004276931301790965
sS'leg'
p121
F0.0002673082063619353
sS'seconds'
p122
F0.0016038492381716118
sS'jumps'
p123
F0.0037423148890670943
sS'rock'
p124
F0.012830793905372895
sS'lefty'
p125
F0.0016038492381716118
sS'free'
p126
F0.0005346164127238706
sS'stem'
p127
F0.00801924619085806
sS'met'
p128
F0.0018711574445335472
sS'step'
p129
F0.0016038492381716118
sS'slow'
p130
F0.0008019246190858059
sS'french'
p131
F0.003475006682705159
sS'key'
p132
F0.0002673082063619353
sS'ask'
p133
F0.0005346164127238706
sS'cousin'
p134
F0.0013365410318096765
sS'roof'
p135
F0.003475006682705159
sS'care'
p136
F0.0016038492381716118
sS'box'
p137
F0.0013365410318096765
sS'tommy'
p138
F0.0029403902699812884
sS'ace'
p139
F0.012296177492649024
sS'getting'
p140
F0.0016038492381716118
sS'starts'
p141
F0.006415396952686447
sS'leaves'
p142
F0.0037423148890670943
sS'museum'
p143
F0.007484629778134189
sS'caught_#1'
p144
F0.0037423148890670943
sS'players'
p145
F0.003475006682705159
sS'american'
p146
F0.0016038492381716118
sS'carrier'
p147
F0.0021384656508954825
sS'place'
p148
F0.0013365410318096765
sS'pigeon_#-3'
p149
F0.0018711574445335472
sS'pure'
p150
F0.0032076984763432237
sS'tailed'
p151
F0.009623095429029671
sS'military'
p152
F0.0002673082063619353
sS'sound'
p153
F0.0024057738572574178
sS'curry'
p154
F0.0037423148890670943
sS'caught'
p155
F0.014167334937182571
sS'con'
p156
F0.0024057738572574178
sS'spotted'
p157
F0.0018711574445335472
sS'color'
p158
F0.0016038492381716118
sS'number'
p159
F0.0016038492381716118
sS'brought'
p160
F0.0008019246190858059
sS'phase'
p161
F0.005078855920876771
sS'synthesize'
p162
F0.0013365410318096765
sS'set'
p163
F0.0016038492381716118
sS'directly'
p164
F0.0045442395081529
sS'duck'
p165
F0.0008019246190858059
sS'owner'
p166
F0.002673082063619353
sS'pulls'
p167
F0.0045442395081529
sS'extinct'
p168
F0.0032076984763432237
sS'extinction'
p169
F0.0013365410318096765
sS'open'
p170
F0.0005346164127238706
sS'size'
p171
F0.003475006682705159
sS'city'
p172
F0.0016038492381716118
sS'story'
p173
F0.007484629778134189
sS'dna'
p174
F0.010692328254477412
sS'sucker'
p175
F0.0032076984763432237
sS'weekend'
p176
F0.0002673082063619353
sS'create'
p177
F0.002673082063619353
sS'give'
p178
F0.0002673082063619353
sS'germ'
p179
F0.0048115477145148355
sS'camera'
p180
F0.0024057738572574178
sS'call'
p181
F0.0010692328254477412
sS'lot'
p182
F0.0005346164127238706
sS'damn'
p183
F0.002673082063619353
sS'breeding'
p184
F0.004276931301790965
sS'peas_#1'
p185
F0.007217321571772253
sS'bits'
p186
F0.0021384656508954825
sS'war'
p187
F0.002673082063619353
sS'today'
p188
F0.006148088746324512
sS'poultry'
p189
F0.0029403902699812884
sS'eyes'
p190
F0.0021384656508954825
sS'bit'
p191
F0.0032076984763432237
sS'fire'
p192
F0.005346164127238706
sS'bus'
p193
F0.0002673082063619353
sS'company'
p194
F0.0002673082063619353
sS'park'
p195
F0.0013365410318096765
sS'glass'
p196
F0.0013365410318096765
sS'hear'
p197
F0.006682705159048383
sS'learned'
p198
F0.005346164127238706
sS'known'
p199
F0.0018711574445335472
sS'hole'
p200
F0.0002673082063619353
sS'fellow'
p201
F0.0010692328254477412
sS'true'
p202
F0.0016038492381716118
sS'hen'
p203
F0.0032076984763432237
sS'fly'
p204
F0.0037423148890670943
sS'honey'
p205
F0.0021384656508954825
sS'kind'
p206
F0.0005346164127238706
sS'rice'
p207
F0.004276931301790965
sS'look'
p208
F0.0016038492381716118
sS'captive'
p209
F0.0032076984763432237
sS'walks'
p210
F0.0016038492381716118
sS'specimens'
p211
F0.0048115477145148355
sS'cells'
p212
F0.014434643143544507
sS'bill'
p213
F0.0018711574445335472
sS'told'
p214
F0.0002673082063619353
sS'bed'
p215
F0.0005346164127238706
sS'air'
p216
F0.0008019246190858059
sS'matter'
p217
F0.0002673082063619353
sS'making'
p218
F0.0002673082063619353
sS'cracked'
p219
F0.005346164127238706
sS'piece'
p220
F0.0002673082063619353
sS'york'
p221
F0.0013365410318096765
sS'called'
p222
F0.00400962309542903
sS'history'
p223
F0.0021384656508954825
sS'passenger'
p224
F0.042502004811547714
sS'compare'
p225
F0.00400962309542903
sS'cont'
p226
F0.0032076984763432237
sS'bio'
p227
F0.0021384656508954825
sS'caught_#-2'
p228
F0.005346164127238706
sS'modern'
p229
F0.004276931301790965
sS'mind'
p230
F0.003475006682705159
sS'head'
p231
F0.00855386260358193
sS'deep'
p232
F0.0037423148890670943
sS'dog'
p233
F0.0008019246190858059
sS'high'
p234
F0.007751937984496124
sS'heard'
p235
F0.0016038492381716118
sS'single'
p236
F0.0008019246190858059
sS'experience'
p237
F0.0018711574445335472
sS'seen'
p238
F0.0032076984763432237
sS'bones'
p239
F0.0032076984763432237
sS'flight'
p240
F0.0008019246190858059
sS'species'
p241
F0.009623095429029671
sS'shit'
p242
F0.0002673082063619353
sS'returned'
p243
F0.0013365410318096765
sS'ride'
p244
F0.0005346164127238706
sS'thought'
p245
F0.0008019246190858059
sS'end'
p246
F0.0016038492381716118
sS'goal'
p247
F0.002673082063619353
sS'ingredients'
p248
F0.0013365410318096765
sS'media'
p249
F0.0037423148890670943
sS'shoulders'
p250
F0.0005346164127238706
sS'airport'
p251
F0.0002673082063619353
sS'brian'
p252
F0.0021384656508954825
sS'chest'
p253
F0.0013365410318096765
sS'genome'
p254
F0.01603849238171612
sS'doors'
p255
F0.0002673082063619353
sS'season'
p256
F0.0032076984763432237
sS'pigeon_#3'
p257
F0.0016038492381716118
sS'difficult'
p258
F0.0048115477145148355
sS'picture'
p259
F0.0029403902699812884
sS'altered'
p260
F0.004276931301790965
sS'eggs'
p261
F0.004276931301790965
sS'spot'
p262
F0.0008019246190858059
sS'peas'
p263
F0.01603849238171612
sS'hand'
p264
F0.0005346164127238706
sS'passenger_#-1'
p265
F0.011226944667201283
sS'produce'
p266
F0.003475006682705159
sS'significant'
p267
F0.0013365410318096765
sS'coming'
p268
F0.0013365410318096765
sS'date'
p269
F0.005078855920876771
sS'president'
p270
F0.005880780539962577
sS'hawk'
p271
F0.0032076984763432237
sS'dove'
p272
F0.0018711574445335472
sS'jones'
p273
F0.0008019246190858059
sS'early'
p274
F0.0008019246190858059
sS'natural'
p275
F0.003475006682705159
sS'neck'
p276
F0.0005346164127238706
sS'band'
p277
F0.00801924619085806
sS'light'
p278
F0.0013365410318096765
sS'moved'
p279
F0.0013365410318096765
sS'drive'
p280
F0.0002673082063619353
sS'think'
p281
F0.0024057738572574178
sS'looked'
p282
F0.0008019246190858059
sS'talk'
p283
F0.0005346164127238706
sS'mother'
p284
F0.0032076984763432237
sS'parakeet'
p285
F0.0018711574445335472
sS'hospital'
p286
F0.0002673082063619353
sS'egg'
p287
F0.002673082063619353
sS'fact'
p288
F0.0002673082063619353
sS'left'
p289
F0.0013365410318096765
ssI2
(dp290
g2
F0.0018577494692144374
sg3
F0.0015923566878980893
sS'shot'
p291
F0.0002653927813163482
sg4
F0.0023885350318471337
sS'office'
p292
F0.0005307855626326964
sS'show'
p293
F0.0002653927813163482
sS'young'
p294
F0.0007961783439490446
sg36
F0.0005307855626326964
sg38
F0.004777070063694267
sS'droppings'
p295
F0.007696390658174098
sg176
F0.0023885350318471337
sS'unfair'
p296
F0.00291932059447983
sg9
F0.0005307855626326964
sS'top'
p297
F0.0021231422505307855
sg145
F0.0007961783439490446
sg13
F0.0010615711252653928
sg14
F0.0002653927813163482
sS'human'
p298
F0.0007961783439490446
sg15
F0.0034501061571125266
sg16
F0.0002653927813163482
sS'chicken'
p299
F0.0074309978768577496
sg19
F0.0021231422505307855
sg20
F0.019373673036093417
sg21
F0.0018577494692144374
sS'move'
p300
F0.0002653927813163482
sg221
F0.005307855626326964
sg24
F0.0031847133757961785
sS'grabbed'
p301
F0.0021231422505307855
sS'garbage'
p302
F0.00291932059447983
sg26
F0.00291932059447983
sg29
F0.003980891719745223
sS'point'
p303
F0.004777070063694267
sg31
F0.002653927813163482
sg124
F0.0002653927813163482
sS'knew'
p304
F0.004511677282377919
sg32
F0.004246284501061571
sg33
F0.0023885350318471337
sS'wall'
p305
F0.00291932059447983
sS'finally'
p306
F0.0007961783439490446
sg34
F0.0018577494692144374
sg166
F0.0005307855626326964
sg162
F0.0023885350318471337
sg37
F0.002653927813163482
sS'sure'
p307
F0.0005307855626326964
sg40
F0.001326963906581741
sS'photographs'
p308
F0.0021231422505307855
sg42
F0.001326963906581741
sg43
F0.004777070063694267
sg243
F0.0005307855626326964
sS'sitting'
p309
F0.0031847133757961785
sg5
F0.004511677282377919
sS'practice'
p310
F0.001326963906581741
sS'stop'
p311
F0.0010615711252653928
sg274
F0.0031847133757961785
sg50
F0.0002653927813163482
sg265
F0.0005307855626326964
sS'facebook'
p312
F0.0031847133757961785
sg59
F0.0002653927813163482
sS'hands'
p313
F0.0015923566878980893
sg54
F0.001326963906581741
sg56
F0.0023885350318471337
sS'cage'
p314
F0.005307855626326964
sg60
F0.002653927813163482
sg160
F0.0050424628450106155
sS'willems'
p315
F0.004777070063694267
sg62
F0.0015923566878980893
sg64
F0.001326963906581741
sS'yeah'
p316
F0.005307855626326964
sS'gun'
p317
F0.0010615711252653928
sS'grandfather'
p318
F0.0010615711252653928
sS'try'
p319
F0.0002653927813163482
sg67
F0.002653927813163482
sg68
F0.0002653927813163482
sg69
F0.0005307855626326964
sS'homing'
p320
F0.010881104033970275
sg70
F0.00291932059447983
sg71
F0.0034501061571125266
sS'found'
p321
F0.0023885350318471337
sg73
F0.0005307855626326964
sS'river'
p322
F0.0015923566878980893
sS'hyperion'
p323
F0.004246284501061571
sS'side'
p324
F0.00583864118895966
sg149
F0.001326963906581741
sS'clothes'
p325
F0.0015923566878980893
sg113
F0.0002653927813163482
sg79
F0.0023885350318471337
sg163
F0.0023885350318471337
sg30
F0.006369426751592357
sS'smoky'
p326
F0.0031847133757961785
sS'tired'
p327
F0.0031847133757961785
sg81
F0.0002653927813163482
sS'gasoline'
p328
F0.0005307855626326964
sS'footage'
p329
F0.0018577494692144374
sg83
F0.003980891719745223
sg84
F0.007165605095541401
sg85
F0.10005307855626328
sg88
F0.0002653927813163482
sS'born'
p330
F0.0031847133757961785
sS'noise'
p331
F0.002653927813163482
sg92
F0.001326963906581741
sS'sea'
p332
F0.0031847133757961785
sS'corner'
p333
F0.0005307855626326964
sS'home'
p334
F0.0007961783439490446
sg65
F0.00291932059447983
sS'cold'
p335
F0.0021231422505307855
sS'transfer'
p336
F0.0010615711252653928
sS'turn'
p337
F0.0007961783439490446
sS'stood'
p338
F0.0010615711252653928
sS'opened'
p339
F0.001326963906581741
sS'pet'
p340
F0.0037154989384288748
sS'stool'
p341
F0.00583864118895966
sg103
F0.08890658174097664
sS'children'
p342
F0.0034501061571125266
sg107
F0.0010615711252653928
sg108
F0.0002653927813163482
sg116
F0.0010615711252653928
sg45
F0.0023885350318471337
sg171
F0.0023885350318471337
sg115
F0.02361995753715499
sS'highway'
p343
F0.0018577494692144374
sg74
F0.0021231422505307855
sg118
F0.00291932059447983
sg119
F0.0031847133757961785
sS'run'
p344
F0.002653927813163482
sS'power'
p345
F0.003980891719745223
sg121
F0.00291932059447983
sg122
F0.0015923566878980893
sg262
F0.001326963906581741
sg123
F0.0002653927813163482
sS'night'
p346
F0.005307855626326964
sg125
F0.0015923566878980893
sg126
F0.0015923566878980893
sS'broken'
p347
F0.0010615711252653928
sS'pick'
p348
F0.0005307855626326964
sS'death'
p349
F0.004777070063694267
sS'windows'
p350
F0.0005307855626326964
sg132
F0.005573248407643312
sg133
F0.003980891719745223
sg134
F0.0023885350318471337
sg17
F0.0015923566878980893
sS'boy'
p351
F0.0002653927813163482
sS'carried'
p352
F0.0021231422505307855
sg140
F0.0018577494692144374
sS'country'
p353
F0.0015923566878980893
sg142
F0.0015923566878980893
sS'months'
p354
F0.0005307855626326964
sg250
F0.0002653927813163482
sS'days'
p355
F0.0037154989384288748
sg237
F0.0010615711252653928
sS'april'
p356
F0.0018577494692144374
sS'dinner'
p357
F0.002653927813163482
sg147
F0.006634819532908705
sg148
F0.003980891719745223
sg135
F0.0018577494692144374
sS'smoke'
p358
F0.001326963906581741
sS'act'
p359
F0.002653927813163482
sS'real'
p360
F0.0015923566878980893
sS'approaching'
p361
F0.001326963906581741
sg52
F0.002653927813163482
sS'asked'
p362
F0.0021231422505307855
sS'road'
p363
F0.006900212314225053
sg156
F0.0005307855626326964
sS'tony'
p364
F0.0031847133757961785
sS'family'
p365
F0.0007961783439490446
sg224
F0.006104033970276009
sS'feel'
p366
F0.0021231422505307855
sg159
F0.0010615711252653928
sS'fancy'
p367
F0.0005307855626326964
sS'son'
p368
F0.0002653927813163482
sS'county'
p369
F0.0023885350318471337
sS'ran'
p370
F0.0005307855626326964
sS'send'
p371
F0.0018577494692144374
sg165
F0.0050424628450106155
sg77
F0.002653927813163482
sg167
F0.0002653927813163482
sg168
F0.004777070063694267
sg169
F0.00291932059447983
sg170
F0.0002653927813163482
sS'red'
p372
F0.00583864118895966
sg172
F0.00583864118895966
sg278
F0.0015923566878980893
sS'takes'
p373
F0.0005307855626326964
sS'friends'
p374
F0.0005307855626326964
sg155
F0.0005307855626326964
sg178
F0.0021231422505307855
sS'live'
p375
F0.0031847133757961785
sS'fast'
p376
F0.0010615711252653928
sS'paint'
p377
F0.0034501061571125266
sS'attack'
p378
F0.0023885350318471337
sS'window'
p379
F0.0015923566878980893
sg181
F0.0005307855626326964
sg182
F0.0002653927813163482
sS'house'
p380
F0.0021231422505307855
sg100
F0.001326963906581741
sg203
F0.0005307855626326964
sg185
F0.0002653927813163482
sS'parking'
p381
F0.0002653927813163482
sS'tell'
p382
F0.006900212314225053
sS'store'
p383
F0.001326963906581741
sS'engine'
p384
F0.0007961783439490446
sg189
F0.0010615711252653928
sg190
F0.0007961783439490446
sS'streets'
p385
F0.001326963906581741
sg240
F0.0034501061571125266
sg96
F0.00291932059447983
sS'toolong'
p386
F0.0031847133757961785
sS'wants'
p387
F0.0015923566878980893
sg193
F0.008227176220806794
sS'exactly'
p388
F0.0015923566878980893
sg195
F0.001326963906581741
sS'took'
p389
F0.0005307855626326964
sS'site'
p390
F0.0037154989384288748
sS'part'
p391
F0.0034501061571125266
sg197
F0.0002653927813163482
sS'rabbit'
p392
F0.0031847133757961785
sS'riding'
p393
F0.001326963906581741
sg199
F0.006634819532908705
sg200
F0.0023885350318471337
sg201
F0.0007961783439490446
sg202
F0.002653927813163482
sS'eat'
p394
F0.0037154989384288748
sS'women'
p395
F0.001326963906581741
sg153
F0.001326963906581741
sg7
F0.002653927813163482
sS'photograph'
p396
F0.004511677282377919
sg207
F0.0031847133757961785
sg208
F0.00291932059447983
sS'braver'
p397
F0.0037154989384288748
sg210
F0.002653927813163482
sS'sounds'
p398
F0.002653927813163482
sg213
F0.002653927813163482
sS'dodo'
p399
F0.0034501061571125266
sg215
F0.0002653927813163482
sg138
F0.0002653927813163482
sg217
F0.0002653927813163482
sg188
F0.0002653927813163482
sS'learn'
p400
F0.0050424628450106155
sS'fun'
p401
F0.0002653927813163482
sg129
F0.0002653927813163482
sS'voice'
p402
F0.0002653927813163482
sg222
F0.0034501061571125266
sg61
F0.0018577494692144374
sg223
F0.0010615711252653928
sS'control'
p403
F0.0007961783439490446
sS'heart'
p404
F0.002653927813163482
sS'later'
p405
F0.0023885350318471337
sS'sight'
p406
F0.00291932059447983
sg227
F0.004246284501061571
sS'int'
p407
F0.0021231422505307855
sS'blood'
p408
F0.0023885350318471337
sS'harkins'
p409
F0.0037154989384288748
sg279
F0.002653927813163482
sg231
F0.0021231422505307855
sg232
F0.0018577494692144374
sg233
F0.00291932059447983
sg234
F0.0002653927813163482
sS'tiny'
p410
F0.0007961783439490446
sS'purchased'
p411
F0.0023885350318471337
sg44
F0.0005307855626326964
sS'ready'
p412
F0.0037154989384288748
sS'north'
p413
F0.004777070063694267
sS'shooting'
p414
F0.002653927813163482
sS'saw'
p415
F0.003980891719745223
sS'everyday'
p416
F0.005307855626326964
sg242
F0.0007961783439490446
sS'sat'
p417
F0.0005307855626326964
sS'mountain'
p418
F0.00583864118895966
sS'sits'
p419
F0.00291932059447983
sg246
F0.0002653927813163482
sS'built'
p420
F0.0031847133757961785
sS'want'
p421
F0.0031847133757961785
sS'floor'
p422
F0.004777070063694267
sS'town'
p423
F0.0010615711252653928
sS'things'
p424
F0.0002653927813163482
sS'percent'
p425
F0.0002653927813163482
sg146
F0.0050424628450106155
sS'hampshire'
p426
F0.003980891719745223
sg241
F0.004246284501061571
sg252
F0.0021231422505307855
sS'hot'
p427
F0.0007961783439490446
sS'ounce'
p428
F0.0031847133757961785
sS'read'
p429
F0.0002653927813163482
sg285
F0.001326963906581741
sg72
F0.0015923566878980893
sS'forge'
p430
F0.010084925690021231
sg257
F0.0015923566878980893
sS'puppy'
p431
F0.0023885350318471337
sS'wheel'
p432
F0.001326963906581741
sS'voiceover'
p433
F0.008492569002123142
sg128
F0.0002653927813163482
sS'kinds'
p434
F0.0034501061571125266
sS'tried'
p435
F0.001326963906581741
sS'students'
p436
F0.001326963906581741
sS'watch'
p437
F0.006369426751592357
sg261
F0.0015923566878980893
sS'felt'
p438
F0.002653927813163482
sS'reached'
p439
F0.001326963906581741
sg263
F0.0021231422505307855
sS'evil'
p440
F0.0010615711252653928
sg264
F0.0015923566878980893
sS'cigarette'
p441
F0.0002653927813163482
sg266
F0.0031847133757961785
sS'moving'
p442
F0.0005307855626326964
sS'cleaning'
p443
F0.0031847133757961785
sg267
F0.0015923566878980893
sg268
F0.0002653927813163482
sg269
F0.0002653927813163482
sg271
F0.0002653927813163482
sg272
F0.010881104033970275
sS'died'
p444
F0.001326963906581741
sg273
F0.001326963906581741
sg245
F0.0034501061571125266
sS'safe'
p445
F0.0007961783439490446
sS'short'
p446
F0.0007961783439490446
sS'wife'
p447
F0.0010615711252653928
sS'forge_#1'
p448
F0.0074309978768577496
sg287
F0.0018577494692144374
sg248
F0.0023885350318471337
sg280
F0.0050424628450106155
sg256
F0.0002653927813163482
sg281
F0.0007961783439490446
sg282
F0.0018577494692144374
sS'person'
p449
F0.0031847133757961785
sS'ext'
p450
F0.00291932059447983
sS'warm'
p451
F0.0010615711252653928
sS'green'
p452
F0.002653927813163482
sS'relief'
p453
F0.0021231422505307855
sS'allow'
p454
F0.0021231422505307855
sg101
F0.0005307855626326964
sg289
F0.0005307855626326964
sS'dream'
p455
F0.00291932059447983
sS'sounded'
p456
F0.0002653927813163482
sg288
F0.002653927813163482
sS'latest'
p457
F0.00291932059447983
ssI3
(dp458
g12
F0.0022071307300509336
sg342
F0.0022071307300509336
sS'apartment'
p459
F0.0022071307300509336
sS'father'
p460
F0.0030560271646859084
sg294
F0.001867572156196944
sg371
F0.0011884550084889642
sg306
F0.0013582342954159593
sS'bike'
p461
F0.001867572156196944
sg387
F0.0013582342954159593
sg37
F0.00016977928692699492
sg42
F0.0005093378607809847
sg43
F0.00016977928692699492
sg243
F0.0013582342954159593
sg309
F0.0030560271646859084
sg56
F0.0005093378607809847
sg64
F0.00033955857385398983
sg317
F0.003395585738539898
sg318
F0.0011884550084889642
sg66
F0.00016977928692699492
sS'race'
p462
F0.001867572156196944
sg372
F0.001697792869269949
sS'team'
p463
F0.0028862478777589135
sg79
F0.004414261460101867
sg73
F0.0010186757215619694
sg325
F0.0011884550084889642
sg327
F0.00016977928692699492
sg399
F0.00016977928692699492
sg385
F0.0013582342954159593
sg84
F0.00016977928692699492
sg85
F0.12088285229202038
sS'tires'
p464
F0.001867572156196944
sS'slowed'
p465
F0.001867572156196944
sS'street'
p466
F0.007300509337860781
sg91
F0.0020373514431239388
sg16
F0.0005093378607809847
sg98
F0.001867572156196944
sg338
F0.001867572156196944
sg345
F0.0015280135823429542
sg106
F0.0011884550084889642
sg107
F0.0011884550084889642
sg45
F0.0005093378607809847
sg111
F0.0005093378607809847
sg113
F0.0015280135823429542
sg114
F0.0008488964346349745
sg115
F0.00033955857385398983
sg214
F0.0028862478777589135
sS'body'
p467
F0.0030560271646859084
sg119
F0.0008488964346349745
sg131
F0.00016977928692699492
sg128
F0.0006791171477079797
sg137
F0.0015280135823429542
sg351
F0.001867572156196944
sS'kids'
p468
F0.0022071307300509336
sg237
F0.00016977928692699492
sg251
F0.0020373514431239388
sg358
F0.0011884550084889642
sg348
F0.0015280135823429542
sg152
F0.0020373514431239388
sg365
F0.004923599320882852
sg160
F0.0005093378607809847
sS'put'
p469
F0.004923599320882852
sg167
F0.001697792869269949
sg102
F0.0006791171477079797
sg373
F0.0032258064516129032
sS'working'
p470
F0.0028862478777589135
sg286
F0.001697792869269949
sS'sports'
p471
F0.0027164685908319186
sg375
F0.00033955857385398983
sg180
F0.0011884550084889642
sg181
F0.0027164685908319186
sS'vehicle'
p472
F0.0039049235993208827
sg188
F0.0010186757215619694
sS'door'
p473
F0.0050933786078098476
sg41
F0.001867572156196944
sg194
F0.0022071307300509336
sg196
F0.0011884550084889642
sg451
F0.001697792869269949
sg199
F0.00033955857385398983
sg200
F0.00033955857385398983
sg395
F0.0010186757215619694
sg423
F0.0040747028862478775
sg234
F0.0010186757215619694
sg60
F0.0011884550084889642
sS'car'
p474
F0.05908319185059423
sg244
F0.005432937181663837
sg328
F0.0015280135823429542
sg135
F0.0008488964346349745
sg400
F0.00033955857385398983
sg218
F0.0027164685908319186
sS'drops'
p475
F0.0020373514431239388
sg223
F0.0006791171477079797
sg403
F0.0023769100169779285
sg404
F0.0039049235993208827
sg421
F0.004753820033955857
sg178
F0.003565365025466893
sg205
F0.0006791171477079797
sg235
F0.001697792869269949
sS'woman'
p476
F0.0025466893039049238
sg411
F0.0008488964346349745
sg44
F0.0008488964346349745
sg239
F0.001697792869269949
sg241
F0.00033955857385398983
sg246
F0.0040747028862478775
sg247
F0.0005093378607809847
sg337
F0.0028862478777589135
sS'grass'
p477
F0.0022071307300509336
sg252
F0.00016977928692699492
sg427
F0.001697792869269949
sS'beach'
p478
F0.0008488964346349745
sg94
F0.0015280135823429542
sg435
F0.0025466893039049238
sg262
F0.0008488964346349745
sg266
F0.00016977928692699492
sg408
F0.0023769100169779285
sg268
F0.0013582342954159593
sg270
F0.00033955857385398983
sg271
F0.0008488964346349745
sg446
F0.001697792869269949
sg275
F0.0011884550084889642
sg276
F0.0027164685908319186
sg278
F0.0022071307300509336
sg452
F0.0008488964346349745
sg454
F0.0008488964346349745
sS'pulled'
p479
F0.0022071307300509336
sg283
F0.004244482173174873
sg4
F0.0030560271646859084
sg292
F0.0023769100169779285
sg300
F0.001697792869269949
sg8
F0.0032258064516129032
sg297
F0.001867572156196944
sg14
F0.0008488964346349745
sg335
F0.0008488964346349745
sg23
F0.0013582342954159593
sg25
F0.005263157894736842
sg33
F0.001867572156196944
sg379
F0.003395585738539898
sg39
F0.0015280135823429542
sg5
F0.0005093378607809847
sg310
F0.0011884550084889642
sg313
F0.0028862478777589135
sg27
F0.005772495755517827
sg28
F0.0022071307300509336
sg58
F0.0039049235993208827
sS'james'
p480
F0.0022071307300509336
sS'stopped'
p481
F0.003565365025466893
sg124
F0.0005093378607809847
sg321
F0.003395585738539898
sg324
F0.005772495755517827
sg380
F0.0069609507640067915
sg83
F0.0030560271646859084
sg95
F0.0030560271646859084
sS'leave'
p482
F0.0027164685908319186
sg339
F0.001867572156196944
sS'driving'
p483
F0.005602716468590832
sg343
F0.0020373514431239388
sS'cars'
p484
F0.0039049235993208827
sg126
F0.0013582342954159593
sg221
F0.00016977928692699492
sS'imagine'
p485
F0.001867572156196944
sg133
F0.00016977928692699492
sS'wanted'
p486
F0.0030560271646859084
sg136
F0.0011884550084889642
sg118
F0.00016977928692699492
sg355
F0.0030560271646859084
sS'times'
p487
F0.003565365025466893
sg96
F0.004244482173174873
sg146
F0.0011884550084889642
sg148
F0.0006791171477079797
sg281
F0.0022071307300509336
sg366
F0.0008488964346349745
sg159
F0.0022071307300509336
sg367
F0.0020373514431239388
sg61
F0.0022071307300509336
sg164
F0.00016977928692699492
sg166
F0.0008488964346349745
sg439
F0.0011884550084889642
sg398
F0.0006791171477079797
sS'drove'
p488
F0.0032258064516129032
sg170
F0.005432937181663837
sg171
F0.0006791171477079797
sg172
F0.004753820033955857
sg173
F0.0010186757215619694
sS'district'
p489
F0.0020373514431239388
sg155
F0.0022071307300509336
sg378
F0.0006791171477079797
sg30
F0.00033955857385398983
sS'john'
p490
F0.0027164685908319186
sS'friend'
p491
F0.001867572156196944
sg190
F0.0011884550084889642
sS'murder'
p492
F0.0023769100169779285
sg256
F0.00033955857385398983
sg388
F0.0008488964346349745
sg195
F0.0013582342954159593
sg389
F0.0050933786078098476
sg391
F0.0030560271646859084
sg206
F0.001867572156196944
sg215
F0.0013582342954159593
sg138
F0.0011884550084889642
sg217
F0.001867572156196944
sg383
F0.0010186757215619694
sS'feeling'
p493
F0.0023769100169779285
sg370
F0.0022071307300509336
sg230
F0.0008488964346349745
sg22
F0.001697792869269949
sS'need'
p494
F0.004923599320882852
sg238
F0.001697792869269949
sg415
F0.0040747028862478775
sg417
F0.0028862478777589135
sg420
F0.00033955857385398983
sg253
F0.0023769100169779285
sg255
F0.003395585738539898
sS'hotel'
p495
F0.003735144312393888
sS'electric'
p496
F0.003565365025466893
sg304
F0.0011884550084889642
sg441
F0.0020373514431239388
sg267
F0.00016977928692699492
sg161
F0.0005093378607809847
sg350
F0.0022071307300509336
sg287
F0.00016977928692699492
sg405
F0.0032258064516129032
sg280
F0.007470288624787776
sS'face'
p497
F0.0023769100169779285
sg282
F0.0045840407470288625
sg457
F0.0005093378607809847
sg288
F0.0020373514431239388
sg291
F0.0027164685908319186
sg293
F0.003565365025466893
sg295
F0.0011884550084889642
sg11
F0.0028862478777589135
sg72
F0.00016977928692699492
sg57
F0.0023769100169779285
sg333
F0.0020373514431239388
sg19
F0.00033955857385398983
sg105
F0.004244482173174873
sg21
F0.0013582342954159593
sg130
F0.0022071307300509336
sg301
F0.0010186757215619694
sS'going'
p498
F0.007470288624787776
sg34
F0.004923599320882852
sg36
F0.0023769100169779285
sg393
F0.001697792869269949
sg308
F0.0008488964346349745
sS'hit'
p499
F0.0039049235993208827
sg47
F0.0022071307300509336
sg311
F0.0023769100169779285
sg59
F0.0013582342954159593
sg46
F0.00033955857385398983
sS'hello'
p500
F0.0027164685908319186
sg67
F0.00033955857385398983
sg68
F0.005432937181663837
sS'mercedes'
p501
F0.0023769100169779285
sg322
F0.0027164685908319186
sg76
F0.0020373514431239388
sg361
F0.0010186757215619694
sg157
F0.0011884550084889642
sg163
F0.00016977928692699492
sS'seat'
p502
F0.005602716468590832
sg89
F0.00033955857385398983
sg92
F0.0008488964346349745
sg332
F0.0006791171477079797
sg381
F0.001697792869269949
sS'close'
p503
F0.0025466893039049238
sS'jumped'
p504
F0.0022071307300509336
sg110
F0.0025466893039049238
sg97
F0.0005093378607809847
sg132
F0.0013582342954159593
sS'accident'
p505
F0.0020373514431239388
sg353
F0.0010186757215619694
sS'taking'
p506
F0.0025466893039049238
sg356
F0.0006791171477079797
sg362
F0.0023769100169779285
sg156
F0.0008488964346349745
sg303
F0.00033955857385398983
sg158
F0.0010186757215619694
sS'sweet'
p507
F0.001867572156196944
sS'walk'
p508
F0.0028862478777589135
sS'church'
p509
F0.0022071307300509336
sg168
F0.0006791171477079797
sg455
F0.00033955857385398983
sg177
F0.00033955857385398983
sg410
F0.0025466893039049238
sg183
F0.0013582342954159593
sg384
F0.0027164685908319186
sg250
F0.001867572156196944
sg192
F0.0011884550084889642
sg82
F0.0028862478777589135
sS'gas'
p510
F0.006281833616298811
sg208
F0.0030560271646859084
sS'straight'
p511
F0.0023769100169779285
sg213
F0.00016977928692699492
sg216
F0.0039049235993208827
sg401
F0.0023769100169779285
sg402
F0.0022071307300509336
sg390
F0.0013582342954159593
sS'middle'
p512
F0.0023769100169779285
sg419
F0.00016977928692699492
sg424
F0.003565365025466893
sS'began'
p513
F0.0020373514431239388
sg432
F0.001697792869269949
sg433
F0.003735144312393888
sg445
F0.0015280135823429542
sS'driver'
p514
F0.004753820033955857
sS'drives'
p515
F0.0022071307300509336
sg440
F0.0011884550084889642
sg264
F0.0027164685908319186
sg442
F0.001867572156196944
sg443
F0.00033955857385398983
sg189
F0.00016977928692699492
sg319
F0.0023769100169779285
sg245
F0.0032258064516129032
sg449
F0.0015280135823429542
sg453
F0.0006791171477079797
sg284
F0.003565365025466893
sg289
F0.005432937181663837
sg6
F0.0032258064516129032
sg53
F0.0011884550084889642
sg176
F0.00016977928692699492
sg296
F0.00033955857385398983
sS'rest'
p516
F0.0022071307300509336
sg54
F0.0005093378607809847
sg13
F0.0010186757215619694
sg298
F0.001867572156196944
sg17
F0.0013582342954159593
sS'speed'
p517
F0.0027164685908319186
sg24
F0.00033955857385398983
sS'thinking'
p518
F0.001867572156196944
sg31
F0.0013582342954159593
sg305
F0.00016977928692699492
sS'parents'
p519
F0.0025466893039049238
sS'gave'
p520
F0.0028862478777589135
sg360
F0.0020373514431239388
sg429
F0.001697792869269949
sg48
F0.005263157894736842
sg49
F0.003735144312393888
sg51
F0.0015280135823429542
sg191
F0.0011884550084889642
sg369
F0.00016977928692699492
sg63
F0.00033955857385398983
sg117
F0.0023769100169779285
sg320
F0.00016977928692699492
sg70
F0.0006791171477079797
sg81
F0.0008488964346349745
sg329
F0.0013582342954159593
sg86
F0.0028862478777589135
sg88
F0.001867572156196944
sg307
F0.0020373514431239388
sg334
F0.004244482173174873
sg104
F0.001697792869269949
sg331
F0.00033955857385398983
sg344
F0.005942275042444821
sS'business'
p521
F0.0022071307300509336
sg122
F0.00033955857385398983
sg123
F0.00016977928692699492
sg346
F0.007809847198641765
sg347
F0.0023769100169779285
sg129
F0.0023769100169779285
sg352
F0.0013582342954159593
sg140
F0.003395585738539898
sg354
F0.001697792869269949
sg357
F0.0006791171477079797
sg147
F0.00016977928692699492
sg359
F0.0010186757215619694
sg363
F0.0020373514431239388
sg368
F0.0030560271646859084
sg336
F0.0011884550084889642
sg376
F0.0020373514431239388
sS'start'
p522
F0.0022071307300509336
sg182
F0.0039049235993208827
sS'suit'
p523
F0.0022071307300509336
sS'forward'
p524
F0.0040747028862478775
sS'slowly'
p525
F0.0022071307300509336
sg187
F0.00033955857385398983
sS'ago'
p526
F0.0025466893039049238
sg231
F0.004244482173174873
sS'buy'
p527
F0.0030560271646859084
sS'boys'
p528
F0.001697792869269949
sg197
F0.0010186757215619694
sS'line'
p529
F0.003395585738539898
sg29
F0.0010186757215619694
sg202
F0.0008488964346349745
sg394
F0.0010186757215619694
sS'buying'
p530
F0.001867572156196944
sg75
F0.003565365025466893
sS'problem'
p531
F0.0020373514431239388
sg220
F0.001697792869269949
sS'minutes'
p532
F0.0025466893039049238
sg222
F0.004244482173174873
sg224
F0.0015280135823429542
sg407
F0.001867572156196944
sg279
F0.00033955857385398983
sg201
F0.001867572156196944
sg236
F0.0030560271646859084
sg210
F0.0006791171477079797
sS'watched'
p533
F0.0030560271646859084
sg414
F0.00016977928692699492
sg242
F0.0027164685908319186
sg422
F0.0010186757215619694
sg425
F0.003395585738539898
sg431
F0.0011884550084889642
sg259
F0.00016977928692699492
sg434
F0.00016977928692699492
sg99
F0.0006791171477079797
sg436
F0.0015280135823429542
sg438
F0.0006791171477079797
sS'smiled'
p534
F0.0020373514431239388
sg374
F0.0023769100169779285
sg444
F0.0013582342954159593
sg273
F0.0013582342954159593
sg447
F0.0023769100169779285
sg233
F0.0023769100169779285
sS'walked'
p535
F0.0032258064516129032
sg456
F0.001697792869269949
sS'original'
p536
F0.0020373514431239388
ss.