(dp0
I1
(dp1
S'city'
p2
F0.027149321266968326
sS'interaction'
p3
F0.004524886877828055
sS'garden'
p4
F0.04524886877828054
sS'land_#1'
p5
F0.07239819004524888
sS'house'
p6
F0.058823529411764705
sS'plot'
p7
F0.43891402714932126
sS'land'
p8
F0.09049773755656108
sS'kill'
p9
F0.058823529411764705
sS'significant'
p10
F0.004524886877828055
sS'intelligence'
p11
F0.01809954751131222
sS'small'
p12
F0.06334841628959276
sS'table'
p13
F0.00904977375565611
sS'kill_#1'
p14
F0.04524886877828054
sS'called'
p15
F0.05429864253393665
sS'association'
p16
F0.004524886877828055
sS'mean'
p17
F0.004524886877828055
ssI2
(dp18
g7
F0.06666666666666667
sg3
F0.08888888888888889
sS'figure'
p19
F0.06666666666666667
sS'grade'
p20
F0.022222222222222223
sg11
F0.08888888888888889
sS'students'
p21
F0.24444444444444444
sg10
F0.13333333333333333
sg13
F0.1111111111111111
sg16
F0.022222222222222223
sg17
F0.15555555555555556
ssI3
(dp22
g7
F0.1111111111111111
sg3
F0.06666666666666667
sS'risk'
p23
F0.2
sg19
F0.2222222222222222
sg20
F0.15555555555555556
sg10
F0.06666666666666667
sg13
F0.044444444444444446
sg16
F0.1111111111111111
sg17
F0.022222222222222223
ss.