(dp0
I1
(dp1
S'plot'
p2
F0.6269430051813472
sS'land'
p3
F0.10880829015544041
sS'land_#1'
p4
F0.08290155440414508
sS'house'
p5
F0.046632124352331605
sS'kill'
p6
F0.06735751295336788
sS'small'
p7
F0.06735751295336788
ssI2
(dp8
g7
F0.06666666666666667
sg5
F0.06666666666666667
sg3
F0.06666666666666667
sS'students'
p9
F0.7333333333333333
sg2
F0.06666666666666667
ss.