(dp0
I1
(dp1
S'plot'
p2
F0.6224489795918368
sS'land'
p3
F0.11224489795918367
sS'land_#1'
p4
F0.08163265306122448
sS'house'
p5
F0.05102040816326531
sS'kill'
p6
F0.0663265306122449
sS'small'
p7
F0.0663265306122449
ssI2
(dp8
g7
F0.08333333333333333
sS'students'
p9
F0.9166666666666666
ss.