(dp0
I1
(dp1
S'plot'
p2
F0.5181347150259067
sS'land'
p3
F0.10362694300518134
sS'land_#1'
p4
F0.08290155440414508
sS'house'
p5
F0.05181347150259067
sS"n't"
p6
F0.10362694300518134
sS'kill'
p7
F0.06735751295336788
sS'small'
p8
F0.07253886010362694
ssI2
(dp9
S'students'
p10
F1.0
ss.