(dp0
I1
(dp1
S'point'
p2
F0.011799410029498525
sS'set'
p3
F0.017699115044247787
sS'century'
p4
F0.02064896755162242
sS'modern'
p5
F0.029498525073746312
sS'turned'
p6
F0.0029498525073746312
sS'number'
p7
F0.0029498525073746312
sS'private'
p8
F0.008849557522123894
sS'high'
p9
F0.017699115044247787
sS'heard'
p10
F0.0029498525073746312
sS'style'
p11
F0.0058997050147492625
sS'borg'
p12
F0.008849557522123894
sS'home'
p13
F0.0029498525073746312
sS'open'
p14
F0.0058997050147492625
sS'size'
p15
F0.02064896755162242
sS'agassi'
p16
F0.008849557522123894
sS'court'
p17
F0.02654867256637168
sS'area'
p18
F0.0058997050147492625
sS'top'
p19
F0.014749262536873156
sS'played'
p20
F0.05309734513274336
sS'rackets'
p21
F0.05604719764011799
sS'sports'
p22
F0.02654867256637168
sS'rubber'
p23
F0.008849557522123894
sS'need'
p24
F0.0058997050147492625
sS'wood'
p25
F0.008849557522123894
sS'racket'
p26
F0.10914454277286136
sS'match'
p27
F0.0058997050147492625
sS'opponent'
p28
F0.008849557522123894
sS'body'
p29
F0.02359882005899705
sS'head'
p30
F0.038348082595870206
sS'ball'
p31
F0.011799410029498525
sS'hit'
p32
F0.008849557522123894
sS'tennis'
p33
F0.0855457227138643
sS'squash'
p34
F0.029498525073746312
sS'hand'
p35
F0.0058997050147492625
sS'early'
p36
F0.0058997050147492625
sS'game'
p37
F0.038348082595870206
sS'part'
p38
F0.011799410029498525
sS'known'
p39
F0.02064896755162242
sS'strings'
p40
F0.02654867256637168
sS'play'
p41
F0.0058997050147492625
sS'sampras'
p42
F0.0029498525073746312
sS'term'
p43
F0.0058997050147492625
sS'balls'
p44
F0.0058997050147492625
sS'wooden'
p45
F0.011799410029498525
sS'later'
p46
F0.0058997050147492625
sS'think'
p47
F0.0058997050147492625
sS'face'
p48
F0.0058997050147492625
sS'thought'
p49
F0.0029498525073746312
sS'players'
p50
F0.0471976401179941
sS'small'
p51
F0.014749262536873156
sS'making'
p52
F0.0029498525073746312
sS'tennis_#-1'
p53
F0.02359882005899705
sS'called'
p54
F0.04129793510324484
sS'left'
p55
F0.011799410029498525
ssI2
(dp56
S'grip'
p57
F0.05128205128205128
sg3
F0.007326007326007326
sS'shot'
p58
F0.014652014652014652
sg4
F0.003663003663003663
sg5
F0.003663003663003663
sg41
F0.06227106227106227
sg9
F0.003663003663003663
sS'player'
p59
F0.08058608058608059
sS'including'
p60
F0.003663003663003663
sS'table'
p61
F0.07692307692307693
sg12
F0.003663003663003663
sS'forehand'
p62
F0.02197802197802198
sg15
F0.003663003663003663
sg11
F0.02564102564102564
sS'united'
p63
F0.003663003663003663
sg17
F0.003663003663003663
sg19
F0.01098901098901099
sg33
F0.08058608058608059
sS'father'
p64
F0.007326007326007326
sS'fingers'
p65
F0.014652014652014652
sg21
F0.014652014652014652
sg26
F0.11721611721611722
sg23
F0.018315018315018316
sg25
F0.02564102564102564
sS'black'
p66
F0.007326007326007326
sS'net'
p67
F0.007326007326007326
sg27
F0.054945054945054944
sS'side'
p68
F0.03296703296703297
sg29
F0.007326007326007326
sg30
F0.003663003663003663
sg31
F0.007326007326007326
sg32
F0.007326007326007326
sg35
F0.003663003663003663
sg37
F0.007326007326007326
sg38
F0.003663003663003663
sg39
F0.003663003663003663
sS'end'
p69
F0.03296703296703297
sS'women'
p70
F0.003663003663003663
sS'states'
p71
F0.003663003663003663
sg43
F0.018315018315018316
sg44
F0.01098901098901099
sg45
F0.014652014652014652
sS'put'
p72
F0.003663003663003663
sg48
F0.003663003663003663
sg50
F0.0695970695970696
sS'american'
p73
F0.003663003663003663
sS'night'
p74
F0.003663003663003663
sg52
F0.007326007326007326
sg53
F0.007326007326007326
sS'playing'
p75
F0.007326007326007326
sg55
F0.003663003663003663
ssI3
(dp76
S'give'
p77
F0.0051813471502590676
sg6
F0.0051813471502590676
sg7
F0.031088082901554404
sg8
F0.0051813471502590676
sg71
F0.04145077720207254
sS'front'
p78
F0.025906735751295335
sg62
F0.0051813471502590676
sg26
F0.09844559585492228
sg13
F0.0051813471502590676
sS'film'
p79
F0.06217616580310881
sS'album'
p80
F0.010362694300518135
sg16
F0.0051813471502590676
sg63
F0.046632124352331605
sg69
F0.0051813471502590676
sg18
F0.0051813471502590676
sg2
F0.0051813471502590676
sg64
F0.0051813471502590676
sS'politicians'
p81
F0.0051813471502590676
sS'war'
p82
F0.04145077720207254
sg30
F0.0051813471502590676
sS'north'
p83
F0.046632124352331605
sS'government'
p84
F0.04145077720207254
sS'mother'
p85
F0.02072538860103627
sS'story'
p86
F0.03626943005181347
sg36
F0.03626943005181347
sg38
F0.0051813471502590676
sS'york'
p87
F0.05181347150259067
sS'hands'
p88
F0.010362694300518135
sg39
F0.010362694300518135
sS'racketeering'
p89
F0.0051813471502590676
sg41
F0.046632124352331605
sS'director'
p90
F0.02072538860103627
sg44
F0.010362694300518135
sg45
F0.0051813471502590676
sg46
F0.08808290155440414
sg73
F0.08808290155440414
sS'enterprise'
p91
F0.0051813471502590676
sg51
F0.0051813471502590676
sg75
F0.010362694300518135
sg55
F0.03626943005181347
ssI4
(dp92
S'interests'
p93
F0.14516129032258066
sg84
F0.03225806451612903
sg2
F0.03225806451612903
sg8
F0.04838709677419355
sg81
F0.1935483870967742
sg38
F0.03225806451612903
sS'want'
p94
F0.03225806451612903
sg91
F0.08064516129032258
sg26
F0.06451612903225806
sg89
F0.1935483870967742
sS'special'
p95
F0.14516129032258066
ssI5
(dp96
g47
F0.023255813953488372
sg20
F0.01744186046511628
sg77
F0.005813953488372093
sg6
F0.01744186046511628
sg7
F0.005813953488372093
sg8
F0.0029069767441860465
sg9
F0.0029069767441860465
sg10
F0.02616279069767442
sg60
F0.02616279069767442
sg94
F0.014534883720930232
sg13
F0.023255813953488372
sg24
F0.023255813953488372
sg62
F0.0029069767441860465
sg48
F0.011627906976744186
sg14
F0.00872093023255814
sg95
F0.00872093023255814
sg80
F0.0029069767441860465
sg86
F0.00872093023255814
sS'cut'
p97
F0.03488372093023256
sg69
F0.00872093023255814
sg18
F0.020348837209302327
sg4
F0.0029069767441860465
sg65
F0.005813953488372093
sS'going'
p98
F0.0377906976744186
sg66
F0.020348837209302327
sS'show'
p99
F0.029069767441860465
sg26
F0.1686046511627907
sg75
F0.014534883720930232
sg27
F0.0029069767441860465
sg68
F0.0029069767441860465
sg29
F0.0029069767441860465
sg30
F0.01744186046511628
sg32
F0.0029069767441860465
sS'big'
p100
F0.040697674418604654
sg11
F0.0029069767441860465
sg35
F0.011627906976744186
sg90
F0.005813953488372093
sg37
F0.005813953488372093
sg38
F0.011627906976744186
sS'hoss'
p101
F0.023255813953488372
sg88
F0.014534883720930232
sg78
F0.005813953488372093
sS'police'
p102
F0.029069767441860465
sg89
F0.0029069767441860465
sS'trying'
p103
F0.03197674418604651
sg58
F0.00872093023255814
sg70
F0.00872093023255814
sg41
F0.014534883720930232
sg36
F0.014534883720930232
sg46
F0.005813953488372093
sg72
F0.020348837209302327
sS'air'
p104
F0.014534883720930232
sg49
F0.023255813953488372
sS'thing'
p105
F0.023255813953488372
sS'protection'
p106
F0.020348837209302327
sg74
F0.02616279069767442
sg52
F0.014534883720930232
sg54
F0.00872093023255814
sg55
F0.005813953488372093
ssI6
(dp107
g47
F0.02564102564102564
sg20
F0.01282051282051282
sg77
F0.02564102564102564
sg7
F0.01282051282051282
sg9
F0.05128205128205128
sg59
F0.038461538461538464
sg61
F0.01282051282051282
sg26
F0.02564102564102564
sg58
F0.02564102564102564
sg14
F0.0641025641025641
sg17
F0.07692307692307693
sg105
F0.01282051282051282
sg2
F0.05128205128205128
sg67
F0.07692307692307693
sg28
F0.07692307692307693
sg57
F0.01282051282051282
sg31
F0.15384615384615385
sg32
F0.05128205128205128
sg35
F0.05128205128205128
sg37
F0.02564102564102564
sg88
F0.02564102564102564
sg78
F0.01282051282051282
sg70
F0.01282051282051282
sg46
F0.01282051282051282
sg104
F0.01282051282051282
sg50
F0.01282051282051282
sg51
F0.01282051282051282
sg54
F0.01282051282051282
ssI7
(dp108
g43
F0.02
sg3
F0.02
sg69
F0.12
sg94
F0.02
sS'love'
p109
F0.18
sg77
F0.02
sg58
F0.02
sg68
F0.02
sg64
F0.2
sg65
F0.02
sg48
F0.02
sg26
F0.04
sg98
F0.08
sg60
F0.02
sg47
F0.06
sg85
F0.04
sg24
F0.02
sg13
F0.02
sg54
F0.02
sg102
F0.02
sg55
F0.02
ssI8
(dp110
g57
F0.023255813953488372
sg42
F0.23255813953488372
sg41
F0.023255813953488372
sg44
F0.16279069767441862
sg20
F0.023255813953488372
sg33
F0.16279069767441862
sg85
F0.046511627906976744
sg64
F0.046511627906976744
sg36
F0.046511627906976744
sg26
F0.023255813953488372
sg71
F0.046511627906976744
sg63
F0.046511627906976744
sg88
F0.023255813953488372
sg78
F0.023255813953488372
sg13
F0.023255813953488372
sg79
F0.023255813953488372
sg53
F0.023255813953488372
ssI9
(dp111
g106
F0.03571428571428571
sg77
F0.07142857142857142
sS'yakuza'
p112
F0.32142857142857145
sg51
F0.14285714285714285
sg73
F0.03571428571428571
sg38
F0.03571428571428571
sg39
F0.21428571428571427
sg52
F0.03571428571428571
sg70
F0.10714285714285714
ss.