(dp0
I1
(dp1
S'point'
p2
F0.027777777777777776
sS'grip'
p3
F0.021604938271604937
sS'set'
p4
F0.018518518518518517
sS'played'
p5
F0.06481481481481481
sS'give'
p6
F0.0030864197530864196
sS'modern'
p7
F0.009259259259259259
sS'side'
p8
F0.009259259259259259
sS'number'
p9
F0.009259259259259259
sS'high'
p10
F0.018518518518518517
sS'player'
p11
F0.040123456790123455
sS'including'
p12
F0.006172839506172839
sS'want'
p13
F0.0030864197530864196
sS'borg'
p14
F0.0030864197530864196
sS'forehand'
p15
F0.021604938271604937
sS'face'
p16
F0.006172839506172839
sS'open'
p17
F0.024691358024691357
sS'film'
p18
F0.0030864197530864196
sS'court'
p19
F0.046296296296296294
sS'area'
p20
F0.0030864197530864196
sS'top'
p21
F0.0030864197530864196
sS'century'
p22
F0.015432098765432098
sS'rackets'
p23
F0.006172839506172839
sS'racket'
p24
F0.05555555555555555
sS'tennis'
p25
F0.021604938271604937
sS'net'
p26
F0.012345679012345678
sS'playing'
p27
F0.021604938271604937
sS'match'
p28
F0.030864197530864196
sS'opponent'
p29
F0.018518518518518517
sS'body'
p30
F0.012345679012345678
sS'play'
p31
F0.040123456790123455
sS'ball'
p32
F0.04938271604938271
sS'hit'
p33
F0.027777777777777776
sS'big'
p34
F0.012345679012345678
sS'squash'
p35
F0.030864197530864196
sS'hand'
p36
F0.018518518518518517
sS'early'
p37
F0.009259259259259259
sS'sports'
p38
F0.018518518518518517
sS'game'
p39
F0.037037037037037035
sS'part'
p40
F0.012345679012345678
sS'hands'
p41
F0.006172839506172839
sS'known'
p42
F0.015432098765432098
sS'end'
p43
F0.006172839506172839
sS'thing'
p44
F0.0030864197530864196
sS'shot'
p45
F0.021604938271604937
sS'women'
p46
F0.0030864197530864196
sS'director'
p47
F0.006172839506172839
sS'think'
p48
F0.009259259259259259
sS'later'
p49
F0.0030864197530864196
sS'air'
p50
F0.0030864197530864196
sS'players'
p51
F0.07407407407407407
sS'american'
p52
F0.006172839506172839
sS'small'
p53
F0.006172839506172839
sS'making'
p54
F0.006172839506172839
sS'tennis_#-1'
p55
F0.006172839506172839
sS'called'
p56
F0.018518518518518517
sS'left'
p57
F0.012345679012345678
ssI2
(dp58
S'strings'
p59
F0.026392961876832845
sg22
F0.005865102639296188
sg7
F0.02346041055718475
sg31
F0.02932551319648094
sS'states'
p60
F0.005865102639296188
sg42
F0.008797653958944282
sS'table'
p61
F0.06451612903225806
sg14
F0.002932551319648094
sg15
F0.002932551319648094
sg38
F0.005865102639296188
sg17
F0.002932551319648094
sS'special'
p62
F0.002932551319648094
sS'size'
p63
F0.02346041055718475
sS'style'
p64
F0.026392961876832845
sS'united'
p65
F0.005865102639296188
sg43
F0.02346041055718475
sg20
F0.008797653958944282
sg21
F0.008797653958944282
sg6
F0.002932551319648094
sS'father'
p66
F0.005865102639296188
sS'fingers'
p67
F0.011730205278592375
sg23
F0.05865102639296188
sg24
F0.1436950146627566
sS'rubber'
p68
F0.02346041055718475
sS'need'
p69
F0.005865102639296188
sS'wood'
p70
F0.02932551319648094
sS'black'
p71
F0.005865102639296188
sg26
F0.008797653958944282
sg28
F0.02346041055718475
sg29
F0.002932551319648094
sg3
F0.026392961876832845
sS'head'
p72
F0.026392961876832845
sg32
F0.005865102639296188
sg25
F0.12316715542521994
sg39
F0.020527859237536656
sg40
F0.002932551319648094
sg41
F0.002932551319648094
sS'front'
p73
F0.002932551319648094
sS'term'
p74
F0.02346041055718475
sS'balls'
p75
F0.017595307917888565
sg11
F0.03519061583577713
sS'wooden'
p76
F0.020527859237536656
sg49
F0.002932551319648094
sg8
F0.011730205278592375
sg51
F0.03519061583577713
sg52
F0.002932551319648094
sg53
F0.002932551319648094
sg54
F0.008797653958944282
sg55
F0.020527859237536656
sg56
F0.005865102639296188
ssI3
(dp77
g4
F0.004219409282700422
sg5
F0.012658227848101266
sg31
F0.029535864978902954
sg6
F0.004219409282700422
sS'turned'
p78
F0.012658227848101266
sg9
F0.016877637130801686
sS'private'
p79
F0.012658227848101266
sg10
F0.02109704641350211
sS'heard'
p80
F0.004219409282700422
sg12
F0.004219409282700422
sg14
F0.008438818565400843
sS'home'
p81
F0.004219409282700422
sg18
F0.05063291139240506
sS'album'
p82
F0.004219409282700422
sS'story'
p83
F0.0379746835443038
sS'cut'
p84
F0.004219409282700422
sg19
F0.004219409282700422
sg20
F0.02109704641350211
sS'night'
p85
F0.008438818565400843
sg23
F0.004219409282700422
sS'politicians'
p86
F0.004219409282700422
sS'going'
p87
F0.008438818565400843
sg62
F0.008438818565400843
sg24
F0.0970464135021097
sg27
F0.004219409282700422
sS'war'
p88
F0.03375527426160337
sg29
F0.004219409282700422
sg72
F0.012658227848101266
sS'north'
p89
F0.0379746835443038
sS'government'
p90
F0.03375527426160337
sS'mother'
p91
F0.02109704641350211
sg37
F0.03375527426160337
sg40
F0.008438818565400843
sS'york'
p92
F0.04219409282700422
sg73
F0.016877637130801686
sS'police'
p93
F0.008438818565400843
sS'racketeering'
p94
F0.008438818565400843
sg45
F0.004219409282700422
sg60
F0.029535864978902954
sg42
F0.008438818565400843
sg47
F0.012658227848101266
sg76
F0.008438818565400843
sg49
F0.0759493670886076
sg65
F0.0379746835443038
sg16
F0.008438818565400843
sg52
F0.06329113924050633
sS'protection'
p95
F0.02531645569620253
sS'enterprise'
p96
F0.004219409282700422
sg53
F0.004219409282700422
sg54
F0.004219409282700422
sg55
F0.004219409282700422
sg56
F0.016877637130801686
sg57
F0.0379746835443038
ssI4
(dp97
S'interests'
p98
F0.140625
sg13
F0.03125
sg90
F0.03125
sg20
F0.015625
sg79
F0.046875
sg86
F0.1875
sg40
F0.03125
sg2
F0.03125
sg96
F0.078125
sg24
F0.0625
sg94
F0.1875
sg56
F0.015625
sg62
F0.140625
ssI5
(dp99
g4
F0.006389776357827476
sg5
F0.003194888178913738
sg22
F0.006389776357827476
sg78
F0.01597444089456869
sg9
F0.009584664536741214
sg80
F0.019169329073482427
sg12
F0.025559105431309903
sg13
F0.012779552715654952
sg69
F0.022364217252396165
sg81
F0.03194888178913738
sg16
F0.012779552715654952
sg17
F0.003194888178913738
sg82
F0.006389776357827476
sg64
F0.003194888178913738
sg84
F0.03514376996805112
sg43
F0.02875399361022364
sg21
F0.012779552715654952
sg6
F0.01597444089456869
sg66
F0.03514376996805112
sg67
F0.009584664536741214
sg24
F0.16613418530351437
sg87
F0.04472843450479233
sg71
F0.012779552715654952
sS'show'
p100
F0.03194888178913738
sg26
F0.003194888178913738
sg27
F0.003194888178913738
sg8
F0.009584664536741214
sg72
F0.019169329073482427
sg33
F0.003194888178913738
sg34
F0.03194888178913738
sg85
F0.022364217252396165
sg36
F0.01597444089456869
sg47
F0.003194888178913738
sg40
F0.006389776357827476
sS'hoss'
p101
F0.025559105431309903
sg41
F0.022364217252396165
sg73
F0.012779552715654952
sg93
F0.02875399361022364
sS'trying'
p102
F0.02875399361022364
sg45
F0.003194888178913738
sg46
F0.006389776357827476
sg31
F0.009584664536741214
sg48
F0.03514376996805112
sg75
F0.003194888178913738
sg49
F0.003194888178913738
sS'put'
p103
F0.025559105431309903
sg50
F0.012779552715654952
sS'thought'
p104
F0.025559105431309903
sg44
F0.022364217252396165
sg95
F0.006389776357827476
sg91
F0.003194888178913738
sg53
F0.012779552715654952
sg54
F0.006389776357827476
sg56
F0.01597444089456869
ssI6
(dp105
g53
F0.06382978723404255
sS'love'
p106
F0.19148936170212766
sg44
F0.02127659574468085
sS'yakuza'
p107
F0.19148936170212766
sg50
F0.02127659574468085
sg60
F0.02127659574468085
sg69
F0.02127659574468085
sg52
F0.02127659574468085
sg87
F0.02127659574468085
sg13
F0.02127659574468085
sg24
F0.0425531914893617
sg42
F0.1276595744680851
sg54
F0.02127659574468085
sg40
F0.0425531914893617
sg102
F0.02127659574468085
sg48
F0.02127659574468085
sg45
F0.02127659574468085
sg46
F0.10638297872340426
ssI7
(dp108
g5
F0.012658227848101266
sg72
F0.0379746835443038
sg79
F0.02531645569620253
sg10
F0.012658227848101266
sg80
F0.012658227848101266
sg69
F0.012658227848101266
sg81
F0.012658227848101266
sS'agassi'
p109
F0.05063291139240506
sg65
F0.012658227848101266
sg25
F0.11392405063291139
sg66
F0.02531645569620253
sg38
F0.012658227848101266
sg71
F0.0379746835443038
sg24
F0.08860759493670886
sg29
F0.012658227848101266
sg30
F0.08860759493670886
sg31
F0.012658227848101266
sS'sampras'
p110
F0.13924050632911392
sg37
F0.06329113924050633
sg75
F0.08860759493670886
sg49
F0.012658227848101266
sg56
F0.012658227848101266
sg104
F0.012658227848101266
sg60
F0.012658227848101266
sg91
F0.02531645569620253
sg55
F0.012658227848101266
sg8
F0.012658227848101266
sg57
F0.02531645569620253
ssI8
(dp111
g80
F0.4
sg83
F0.2
sg102
F0.2
sg85
F0.2
ss.