(dp0
I1
(dp1
S'grip'
p2
F0.007518796992481203
sS'tennis'
p3
F0.15789473684210525
sS'played'
p4
F0.09774436090225563
sS'modern'
p5
F0.03759398496240601
sS'high'
p6
F0.007518796992481203
sS'borg'
p7
F0.022556390977443608
sS'need'
p8
F0.007518796992481203
sS'special'
p9
F0.0037593984962406013
sS'agassi'
p10
F0.015037593984962405
sS'united'
p11
F0.015037593984962405
sS'court'
p12
F0.02631578947368421
sS'point'
p13
F0.018796992481203006
sS'rackets'
p14
F0.07142857142857142
sS'racket'
p15
F0.12406015037593984
sS'match'
p16
F0.015037593984962405
sS'tennis_#-1'
p17
F0.03383458646616541
sS'body'
p18
F0.018796992481203006
sS'head'
p19
F0.041353383458646614
sS'ball'
p20
F0.02631578947368421
sS'big'
p21
F0.0037593984962406013
sS'hand'
p22
F0.0037593984962406013
sS'early'
p23
F0.0037593984962406013
sS'game'
p24
F0.03759398496240601
sS'part'
p25
F0.0037593984962406013
sS'known'
p26
F0.03007518796992481
sS'states'
p27
F0.011278195488721804
sS'later'
p28
F0.015037593984962405
sS'side'
p29
F0.0037593984962406013
sS'players'
p30
F0.03759398496240601
sS'small'
p31
F0.03007518796992481
sS'called'
p32
F0.07142857142857142
ssI2
(dp33
g6
F0.01639344262295082
sg19
F0.00819672131147541
sg11
F0.040983606557377046
sS'police'
p34
F0.09016393442622951
sg21
F0.00819672131147541
sg28
F0.07377049180327869
sS'play'
p35
F0.07377049180327869
sg14
F0.01639344262295082
sg23
F0.04918032786885246
sS'player'
p36
F0.00819672131147541
sS'american'
p37
F0.06557377049180328
sg25
F0.02459016393442623
sS'including'
p38
F0.03278688524590164
sg26
F0.00819672131147541
sS'home'
p39
F0.10655737704918032
sg15
F0.19672131147540983
sg17
F0.00819672131147541
sS'racketeering'
p40
F0.01639344262295082
sS'film'
p41
F0.09836065573770492
sg27
F0.05737704918032787
ssI3
(dp42
g2
F0.04329004329004329
sg13
F0.012987012987012988
sg5
F0.004329004329004329
sg19
F0.004329004329004329
sg6
F0.021645021645021644
sg36
F0.1038961038961039
sg38
F0.004329004329004329
sg8
F0.012987012987012988
sS'table'
p43
F0.09523809523809523
sg10
F0.004329004329004329
sg12
F0.030303030303030304
sg3
F0.047619047619047616
sg14
F0.008658008658008658
sg15
F0.18181818181818182
sg16
F0.06060606060606061
sg18
F0.021645021645021644
sg35
F0.09090909090909091
sg20
F0.03463203463203463
sg22
F0.025974025974025976
sg24
F0.017316017316017316
sg26
F0.008658008658008658
sg28
F0.004329004329004329
sg30
F0.11255411255411256
sg29
F0.04329004329004329
sS'left'
p44
F0.004329004329004329
ssI4
(dp45
g18
F0.041666666666666664
sg13
F0.041666666666666664
sS'sampras'
p46
F0.020833333333333332
sS'politicians'
p47
F0.2708333333333333
sg25
F0.041666666666666664
sg15
F0.08333333333333333
sg40
F0.25
sg32
F0.020833333333333332
sg9
F0.22916666666666666
ssI5
(dp48
g13
F0.004878048780487805
sg19
F0.04878048780487805
sg6
F0.014634146341463415
sg8
F0.02926829268292683
sg38
F0.03902439024390244
sg15
F0.24390243902439024
sg39
F0.01951219512195122
sg41
F0.004878048780487805
sg10
F0.004878048780487805
sg11
F0.00975609756097561
sg12
F0.00975609756097561
sg3
F0.00975609756097561
sS'father'
p49
F0.04390243902439024
sS'going'
p50
F0.07804878048780488
sg2
F0.004878048780487805
sg35
F0.00975609756097561
sg21
F0.04878048780487805
sg22
F0.01951219512195122
sg23
F0.04390243902439024
sg24
F0.03902439024390244
sg25
F0.03414634146341464
sS'trying'
p51
F0.05365853658536585
sg27
F0.004878048780487805
sg28
F0.024390243902439025
sg31
F0.014634146341463415
sS'think'
p52
F0.07317073170731707
sg44
F0.06829268292682927
ssI6
(dp53
g46
F0.47619047619047616
sg35
F0.047619047619047616
sg11
F0.047619047619047616
sg3
F0.14285714285714285
sg49
F0.09523809523809523
sg23
F0.047619047619047616
sg15
F0.047619047619047616
sg39
F0.047619047619047616
sg17
F0.047619047619047616
ss.