(dp0
I1
(dp1
S'grip'
p2
F0.04678362573099415
sS'states'
p3
F0.005847953216374269
sS'head'
p4
F0.005847953216374269
sS'ball'
p5
F0.05263157894736842
sS'court'
p6
F0.011695906432748537
sS'play'
p7
F0.13450292397660818
sS'players'
p8
F0.14035087719298245
sS'tennis'
p9
F0.04678362573099415
sS'later'
p10
F0.011695906432748537
sS'game'
p11
F0.017543859649122806
sS'hand'
p12
F0.011695906432748537
sS'high'
p13
F0.017543859649122806
sS'player'
p14
F0.11695906432748537
sS'american'
p15
F0.005847953216374269
sS'point'
p16
F0.017543859649122806
sS'known'
p17
F0.005847953216374269
sS'table'
p18
F0.04678362573099415
sS'racket'
p19
F0.1695906432748538
sS'side'
p20
F0.04093567251461988
sS'match'
p21
F0.08771929824561403
sS'left'
p22
F0.005847953216374269
ssI2
(dp23
S'think'
p24
F0.005813953488372093
sS'played'
p25
F0.03488372093023256
sg13
F0.005813953488372093
sS'borg'
p26
F0.011627906976744186
sS'including'
p27
F0.005813953488372093
sS'need'
p28
F0.01744186046511628
sS'home'
p29
F0.011627906976744186
sS'film'
p30
F0.06976744186046512
sS'agassi'
p31
F0.023255813953488372
sS'united'
p32
F0.03488372093023256
sS'police'
p33
F0.01744186046511628
sg9
F0.023255813953488372
sS'rackets'
p34
F0.01744186046511628
sS'politicians'
p35
F0.005813953488372093
sS'special'
p36
F0.01744186046511628
sg19
F0.21511627906976744
sS'body'
p37
F0.005813953488372093
sg4
F0.11046511627906977
sS'big'
p38
F0.005813953488372093
sS'early'
p39
F0.09302325581395349
sS'part'
p40
F0.023255813953488372
sg17
F0.005813953488372093
sS'racketeering'
p41
F0.005813953488372093
sg3
F0.040697674418604654
sg10
F0.09883720930232558
sg20
F0.011627906976744186
sg15
F0.03488372093023256
sS'called'
p42
F0.023255813953488372
sg22
F0.023255813953488372
ssI3
(dp43
g2
F0.017167381974248927
sg9
F0.1759656652360515
sg25
F0.034334763948497854
sS'modern'
p44
F0.04721030042918455
sg7
F0.017167381974248927
sg3
F0.008583690987124463
sg26
F0.012875536480686695
sg27
F0.008583690987124463
sg28
F0.004291845493562232
sg18
F0.055793991416309016
sg30
F0.004291845493562232
sg32
F0.02145922746781116
sg6
F0.02145922746781116
sg16
F0.004291845493562232
sS'father'
p45
F0.02145922746781116
sg34
F0.08583690987124463
sS'going'
p46
F0.004291845493562232
sg19
F0.16738197424892703
sg21
F0.004291845493562232
sS'tennis_#-1'
p47
F0.03862660944206009
sg37
F0.004291845493562232
sg4
F0.004291845493562232
sg5
F0.004291845493562232
sg38
F0.012875536480686695
sg12
F0.004291845493562232
sg11
F0.055793991416309016
sg40
F0.008583690987124463
sg17
F0.030042918454935622
sg14
F0.017167381974248927
sg8
F0.04291845493562232
sg15
F0.004291845493562232
sS'small'
p48
F0.017167381974248927
sg42
F0.03862660944206009
ssI4
(dp49
g16
F0.04878048780487805
sg35
F0.2926829268292683
sg40
F0.04878048780487805
sg19
F0.04878048780487805
sg41
F0.3170731707317073
sg42
F0.024390243902439025
sg36
F0.21951219512195122
ssI5
(dp50
g4
F0.006134969325153374
sg5
F0.012269938650306749
sg33
F0.04294478527607362
sg25
F0.006134969325153374
sg38
F0.049079754601226995
sS'trying'
p51
F0.06748466257668712
sg20
F0.012269938650306749
sg45
F0.024539877300613498
sg7
F0.024539877300613498
sg12
F0.03067484662576687
sg19
F0.26993865030674846
sg46
F0.09202453987730061
sg27
F0.06134969325153374
sg24
F0.06748466257668712
sg28
F0.03680981595092025
sg29
F0.09202453987730061
sg40
F0.024539877300613498
sg47
F0.006134969325153374
sg42
F0.012269938650306749
sg21
F0.006134969325153374
sg22
F0.05521472392638037
ssI6
(dp52
g37
F0.07142857142857142
sg2
F0.014285714285714285
sg48
F0.08571428571428572
sg5
F0.04285714285714286
sg6
F0.12857142857142856
sg14
F0.014285714285714285
sg25
F0.12857142857142856
sg8
F0.02857142857142857
sg24
F0.04285714285714286
sg12
F0.02857142857142857
sg13
F0.1
sg17
F0.02857142857142857
sg11
F0.08571428571428572
sg40
F0.014285714285714285
sg16
F0.07142857142857142
sg18
F0.014285714285714285
sg26
F0.014285714285714285
sg33
F0.014285714285714285
sg42
F0.05714285714285714
sg22
F0.014285714285714285
ssI7
(dp53
g37
F0.11627906976744186
sg13
F0.023255813953488372
sg31
F0.046511627906976744
sS'sampras'
p54
F0.2558139534883721
sg7
F0.046511627906976744
sg25
F0.046511627906976744
sg9
F0.11627906976744186
sg45
F0.046511627906976744
sg4
F0.023255813953488372
sg12
F0.023255813953488372
sg39
F0.023255813953488372
sg19
F0.06976744186046512
sg3
F0.023255813953488372
sg32
F0.023255813953488372
sg28
F0.023255813953488372
sg29
F0.023255813953488372
sg48
F0.023255813953488372
sg21
F0.023255813953488372
sg47
F0.023255813953488372
ss.