(dp0
I1
(dp1
S'shoot'
p2
F0.1262135922330097
sS'woman'
p3
F0.11650485436893204
sS'set'
p4
F0.019417475728155338
sS'love'
p5
F0.10679611650485436
sS'look'
p6
F0.038834951456310676
sS'color'
p7
F0.009708737864077669
sS'money'
p8
F0.019417475728155338
sS'later'
p9
F0.009708737864077669
sS'dead'
p10
F0.009708737864077669
sS'times'
p11
F0.009708737864077669
sS'director'
p12
F0.038834951456310676
sS'part'
p13
F0.05825242718446602
sS'lot'
p14
F0.038834951456310676
sS'movie'
p15
F0.06796116504854369
sS'shot'
p16
F0.019417475728155338
sS'wanted'
p17
F0.009708737864077669
sS'think'
p18
F0.009708737864077669
sS'film'
p19
F0.2912621359223301
ssI2
(dp20
g2
F0.058823529411764705
sg4
F0.058823529411764705
sS'police'
p21
F0.058823529411764705
sg8
F0.058823529411764705
sg12
F0.11764705882352941
sS'want'
p22
F0.029411764705882353
sg15
F0.20588235294117646
sg17
F0.3235294117647059
sS'saw'
p23
F0.029411764705882353
sS'left'
p24
F0.058823529411764705
ssI3
(dp25
g2
F0.281767955801105
sg4
F0.03867403314917127
sg21
F0.055248618784530384
sS'room'
p26
F0.06077348066298342
sS'show'
p27
F0.0055248618784530384
sg15
F0.0055248618784530384
sg9
F0.049723756906077346
sS'deer'
p28
F0.0055248618784530384
sS'gun'
p29
F0.06077348066298342
sg10
F0.049723756906077346
sg11
F0.055248618784530384
sg12
F0.022099447513812154
sS'going'
p30
F0.0718232044198895
sg16
F0.049723756906077346
sg13
F0.016574585635359115
sg23
F0.055248618784530384
sS'killed'
p31
F0.06629834254143646
sg24
F0.049723756906077346
ssI4
(dp32
g2
F0.25
sg4
F0.02702702702702703
sS'photo'
p33
F0.013513513513513514
sg6
F0.0472972972972973
sg22
F0.08108108108108109
sg27
F0.08108108108108109
sg7
F0.006756756756756757
sg8
F0.0472972972972973
sg9
F0.006756756756756757
sg28
F0.033783783783783786
sg29
F0.006756756756756757
sg10
F0.006756756756756757
sg18
F0.12837837837837837
sg30
F0.08783783783783784
sg14
F0.08783783783783784
sg15
F0.033783783783783786
sg16
F0.013513513513513514
sg13
F0.013513513513513514
sg31
F0.006756756756756757
sg19
F0.006756756756756757
sg24
F0.013513513513513514
ssI5
(dp34
g2
F0.10344827586206896
sg4
F0.13793103448275862
sg6
F0.034482758620689655
sg7
F0.10344827586206896
sg33
F0.4827586206896552
sg14
F0.034482758620689655
sg19
F0.10344827586206896
ss.