(dp0
I1
(dp1
S'set'
p2
F0.029498525073746312
sS"don't"
p3
F0.0058997050147492625
sS"It's"
p4
F0.02359882005899705
sS"didn't"
p5
F0.038348082595870206
sS'want'
p6
F0.02359882005899705
sS'You'
p7
F0.0058997050147492625
sS'saw'
p8
F0.017699115044247787
sS'said.'
p9
F0.038348082595870206
sS'police'
p10
F0.029498525073746312
sS'movie'
p11
F0.032448377581120944
sS'But'
p12
F0.0471976401179941
sS'(COLOR):'
p13
F0.0058997050147492625
sS'going'
p14
F0.0058997050147492625
sS'film'
p15
F0.02064896755162242
sS'They'
p16
F0.061946902654867256
sS'shoot'
p17
F0.20943952802359883
sS'This'
p18
F0.02654867256637168
sS'She'
p19
F0.05014749262536873
sS'The'
p20
F0.20353982300884957
sS'wanted'
p21
F0.032448377581120944
sS'killed'
p22
F0.032448377581120944
sS'And'
p23
F0.0058997050147492625
sS"that's"
p24
F0.0029498525073746312
sS'think'
p25
F0.008849557522123894
sS"can't"
p26
F0.0029498525073746312
sS'left'
p27
F0.038348082595870206
ssI2
(dp28
g3
F0.06711409395973154
sg4
F0.020134228187919462
sg5
F0.003355704697986577
sg6
F0.016778523489932886
sg7
F0.0738255033557047
sg8
F0.013422818791946308
sg20
F0.03691275167785235
sg15
F0.016778523489932886
sg10
F0.003355704697986577
sS"it's"
p29
F0.06040268456375839
sg12
F0.04697986577181208
sg14
F0.10067114093959731
sS'lot'
p30
F0.04697986577181208
sS'it.'
p31
F0.050335570469798654
sg17
F0.10738255033557047
sg16
F0.010067114093959731
sg18
F0.003355704697986577
sS"I'm"
p32
F0.06375838926174497
sg22
F0.003355704697986577
sS'know,'
p33
F0.006711409395973154
sg23
F0.12416107382550336
sg11
F0.003355704697986577
sg25
F0.0436241610738255
sg26
F0.040268456375838924
sg24
F0.03691275167785235
ssI3
(dp34
g23
F0.030303030303030304
sg17
F0.06060606060606061
sg2
F0.030303030303030304
sg18
F0.030303030303030304
sg11
F0.030303030303030304
sg12
F0.030303030303030304
sg14
F0.030303030303030304
sg30
F0.06060606060606061
sg20
F0.09090909090909091
sg8
F0.030303030303030304
sg7
F0.030303030303030304
sg15
F0.2727272727272727
sg33
F0.2727272727272727
ss.