(dp0
I1
(dp1
S'set'
p2
F0.018656716417910446
sS'shot'
p3
F0.048507462686567165
sS'show'
p4
F0.014925373134328358
sS'house'
p5
F0.018656716417910446
sS'rifle'
p6
F0.026119402985074626
sS'deer'
p7
F0.0037313432835820895
sS'scene'
p8
F0.033582089552238806
sS'dead'
p9
F0.041044776119402986
sS'gun'
p10
F0.014925373134328358
sS'woman'
p11
F0.011194029850746268
sS'kill'
p12
F0.014925373134328358
sS'want'
p13
F0.048507462686567165
sS'yes'
p14
F0.0037313432835820895
sS'times'
p15
F0.0037313432835820895
sS'saw'
p16
F0.007462686567164179
sS'film'
p17
F0.007462686567164179
sS'police'
p18
F0.0037313432835820895
sS'weapons'
p19
F0.0037313432835820895
sS'going'
p20
F0.033582089552238806
sS'lot'
p21
F0.011194029850746268
sS'money'
p22
F0.018656716417910446
sS'white'
p23
F0.0037313432835820895
sS'war'
p24
F0.0037313432835820895
sS'today'
p25
F0.03731343283582089
sS'real'
p26
F0.029850746268656716
sS'full'
p27
F0.007462686567164179
sS'means'
p28
F0.018656716417910446
sS'big'
p29
F0.0037313432835820895
sS'turned'
p30
F0.014925373134328358
sS'took'
p31
F0.007462686567164179
sS'game'
p32
F0.0037313432835820895
sS'part'
p33
F0.0037313432835820895
sS'hear'
p34
F0.022388059701492536
sS'hands'
p35
F0.033582089552238806
sS'put'
p36
F0.022388059701492536
sS'line'
p37
F0.007462686567164179
sS'wanted'
p38
F0.014925373134328358
sS'killed'
p39
F0.011194029850746268
sS'kid'
p40
F0.007462686567164179
sS'shoot'
p41
F0.12686567164179105
sS'look'
p42
F0.029850746268656716
sS'hour'
p43
F0.007462686567164179
sS'room'
p44
F0.041044776119402986
sS'later'
p45
F0.0037313432835820895
sS'days'
p46
F0.011194029850746268
sS'experience'
p47
F0.029850746268656716
sS'think'
p48
F0.06343283582089553
sS'thing'
p49
F0.0037313432835820895
sS'place'
p50
F0.022388059701492536
sS'guy'
p51
F0.0037313432835820895
sS'camera'
p52
F0.0037313432835820895
sS'asked'
p53
F0.011194029850746268
ssI2
(dp54
S'love'
p55
F0.00980392156862745
sS'family'
p56
F0.0196078431372549
sS'give'
p57
F0.004901960784313725
sS'color'
p58
F0.004901960784313725
sg5
F0.004901960784313725
sg30
F0.014705882352941176
sg11
F0.03431372549019608
sg15
F0.04411764705882353
sg16
F0.0392156862745098
sg19
F0.03431372549019608
sg18
F0.05392156862745098
sS'movie'
p59
F0.004901960784313725
sS'looking'
p60
F0.04411764705882353
sg20
F0.014705882352941176
sg23
F0.024509803921568627
sg24
F0.03431372549019608
sS'red'
p61
F0.004901960784313725
sS'told'
p62
F0.04411764705882353
sS'week'
p63
F0.0196078431372549
sg27
F0.014705882352941176
sS'star'
p64
F0.004901960784313725
sS'couple'
p65
F0.0392156862745098
sg31
F0.0196078431372549
sg32
F0.004901960784313725
sg33
F0.004901960784313725
sg6
F0.004901960784313725
sg39
F0.0392156862745098
sg40
F0.004901960784313725
sg41
F0.14705882352941177
sS'called'
p66
F0.04411764705882353
sg45
F0.05392156862745098
sg10
F0.0392156862745098
sS'air'
p67
F0.00980392156862745
sg51
F0.029411764705882353
sg53
F0.029411764705882353
sS'left'
p68
F0.05392156862745098
ssI3
(dp69
g48
F0.014705882352941176
sg55
F0.04411764705882353
sg56
F0.029411764705882353
sg4
F0.0661764705882353
sg22
F0.03676470588235294
sg30
F0.007352941176470588
sS'video'
p70
F0.007352941176470588
sg14
F0.029411764705882353
sg17
F0.0661764705882353
sS'turn'
p71
F0.007352941176470588
sg59
F0.03676470588235294
sg20
F0.10294117647058823
sS'music'
p72
F0.014705882352941176
sg21
F0.08088235294117647
sS'digital'
p73
F0.007352941176470588
sS'tell'
p74
F0.029411764705882353
sg63
F0.029411764705882353
sg27
F0.014705882352941176
sg28
F0.022058823529411766
sg29
F0.0661764705882353
sS'million'
p75
F0.014705882352941176
sg31
F0.007352941176470588
sS'director'
p76
F0.007352941176470588
sg32
F0.007352941176470588
sg34
F0.014705882352941176
sg37
F0.007352941176470588
sg41
F0.11029411764705882
sS'unidentified'
p77
F0.03676470588235294
sg42
F0.007352941176470588
sg43
F0.014705882352941176
sg45
F0.007352941176470588
sg67
F0.022058823529411766
sg49
F0.022058823529411766
sg66
F0.007352941176470588
ssI4
(dp78
g2
F0.04807692307692308
sg55
F0.004807692307692308
sg57
F0.019230769230769232
sg58
F0.0625
sg5
F0.004807692307692308
sg8
F0.004807692307692308
sg24
F0.004807692307692308
sg11
F0.004807692307692308
sg70
F0.019230769230769232
sg64
F0.014423076923076924
sg17
F0.07692307692307693
sg71
F0.014423076923076924
sg59
F0.08173076923076923
sg60
F0.004807692307692308
sg52
F0.03365384615384615
sg73
F0.014423076923076924
sg23
F0.019230769230769232
sg74
F0.019230769230769232
sg61
F0.009615384615384616
sg26
F0.004807692307692308
sg27
F0.004807692307692308
sS'photo'
p79
F0.07692307692307693
sg29
F0.009615384615384616
sg75
F0.014423076923076924
sS'commercial'
p80
F0.04326923076923077
sg31
F0.004807692307692308
sg76
F0.0625
sg32
F0.004807692307692308
sg33
F0.038461538461538464
sg36
F0.004807692307692308
sg37
F0.004807692307692308
sg38
F0.038461538461538464
sg40
F0.028846153846153848
sg41
F0.08653846153846154
sg77
F0.014423076923076924
sg42
F0.009615384615384616
sg43
F0.014423076923076924
sg22
F0.004807692307692308
sg46
F0.028846153846153848
sg47
F0.004807692307692308
sg15
F0.004807692307692308
sg49
F0.009615384615384616
sg50
F0.009615384615384616
sg51
F0.004807692307692308
sg68
F0.004807692307692308
ssI5
(dp81
g2
F0.037037037037037035
sg55
F0.018518518518518517
sg57
F0.037037037037037035
sg5
F0.018518518518518517
sg70
F0.07407407407407407
sg17
F0.018518518518518517
sg18
F0.018518518518518517
sg72
F0.1111111111111111
sg21
F0.037037037037037035
sg61
F0.07407407407407407
sg26
F0.018518518518518517
sg64
F0.09259259259259259
sg29
F0.037037037037037035
sg75
F0.09259259259259259
sg32
F0.018518518518518517
sg37
F0.05555555555555555
sg39
F0.018518518518518517
sg41
F0.07407407407407407
sg42
F0.018518518518518517
sg10
F0.018518518518518517
sg71
F0.07407407407407407
sg48
F0.018518518518518517
sg68
F0.018518518518518517
ssI6
(dp82
g41
F0.09433962264150944
sg14
F0.05660377358490566
sg11
F0.018867924528301886
sg2
F0.03773584905660377
sg55
F0.018867924528301886
sg43
F0.05660377358490566
sg57
F0.018867924528301886
sg7
F0.18867924528301888
sg46
F0.018867924528301886
sg49
F0.03773584905660377
sg32
F0.03773584905660377
sg33
F0.018867924528301886
sg12
F0.09433962264150944
sS'stand'
p83
F0.1509433962264151
sg21
F0.03773584905660377
sg36
F0.018867924528301886
sg37
F0.018867924528301886
sg16
F0.018867924528301886
sg74
F0.018867924528301886
sg61
F0.018867924528301886
sg62
F0.018867924528301886
ss.