(dp0
I1
(dp1
S'walking'
p2
F0.0004222972972972973
sS'gold'
p3
F0.0004222972972972973
sS'developed'
p4
F0.0021114864864864866
sS'produced'
p5
F0.015625
sS'thermal'
p6
F0.0008445945945945946
sS'limestone'
p7
F0.005067567567567568
sS'including'
p8
F0.0016891891891891893
sS'methods'
p9
F0.0016891891891891893
sS'mill'
p10
F0.0004222972972972973
sS'avenue'
p11
F0.0004222972972972973
sS'worked'
p12
F0.0029560810810810812
sS'ground'
p13
F0.008023648648648648
sS'current'
p14
F0.0004222972972972973
sS'based'
p15
F0.0029560810810810812
sS'electricity'
p16
F0.001266891891891892
sS'presence'
p17
F0.0004222972972972973
sS'late'
p18
F0.0008445945945945946
sS'grade'
p19
F0.002533783783783784
sS'production'
p20
F0.016469594594594593
sS'east'
p21
F0.0004222972972972973
sS'steel'
p22
F0.03842905405405406
sS'non'
p23
F0.0008445945945945946
sS'pure'
p24
F0.0071790540540540545
sS'end'
p25
F0.0004222972972972973
sS'pig'
p26
F0.008868243243243243
sS'furnaces'
p27
F0.01900337837837838
sS'early'
p28
F0.0008445945945945946
sS'test'
p29
F0.0021114864864864866
sS'blast'
p30
F0.03420608108108108
sS'hall'
p31
F0.001266891891891892
sS'molten'
p32
F0.008445945945945946
sS'processes'
p33
F0.008023648648648648
sS'oxygen'
p34
F0.009712837837837838
sS'impurities'
p35
F0.0059121621621621625
sS'shaped'
p36
F0.0008445945945945946
sS'large'
p37
F0.0059121621621621625
sS'ore'
p38
F0.009290540540540541
sS'common'
p39
F0.0016891891891891893
sS'rock'
p40
F0.002533783783783784
sS'small'
p41
F0.0016891891891891893
sS'found'
p42
F0.0008445945945945946
sS'reduced'
p43
F0.009712837837837838
sS'heavy'
p44
F0.001266891891891892
sS'revolution'
p45
F0.001266891891891892
sS'fired'
p46
F0.003800675675675676
sS'energy'
p47
F0.001266891891891892
sS'product'
p48
F0.005067567567567568
sS'group'
p49
F0.0016891891891891893
sS'surrounding'
p50
F0.0008445945945945946
sS'arc'
p51
F0.022804054054054054
sS'design'
p52
F0.0004222972972972973
sS'operated'
p53
F0.0008445945945945946
sS'transportation'
p54
F0.001266891891891892
sS'portland'
p55
F0.005067567567567568
sS'paul'
p56
F0.0016891891891891893
sS'established'
p57
F0.0004222972972972973
sS'material'
p58
F0.008023648648648648
sS'scale'
p59
F0.0033783783783783786
sS'opened'
p60
F0.0004222972972972973
sS'bottom'
p61
F0.00633445945945946
sS'hroult'
p62
F0.0046452702702702705
sS'pattern'
p63
F0.0004222972972972973
sS'scrap'
p64
F0.005067567567567568
sS'recorded'
p65
F0.0004222972972972973
sS'research'
p66
F0.0004222972972972973
sS'content'
p67
F0.0071790540540540545
sS'granulated'
p68
F0.0046452702702702705
sS'vehicle'
p69
F0.0004222972972972973
sS'dioxide'
p70
F0.005067567567567568
sS'burned'
p71
F0.002533783783783784
sS'size'
p72
F0.002533783783783784
sS'conditions'
p73
F0.0016891891891891893
sS'method'
p74
F0.005489864864864865
sS'led'
p75
F0.0008445945945945946
sS'medieval'
p76
F0.0029560810810810812
sS'bessemer'
p77
F0.009290540540540541
sS'water'
p78
F0.0004222972972972973
sS'step'
p79
F0.0004222972972972973
sS'china'
p80
F0.0004222972972972973
sS'carbon'
p81
F0.02660472972972973
sS'ash'
p82
F0.0046452702702702705
sS'temperature'
p83
F0.003800675675675676
sS'reaction'
p84
F0.004222972972972973
sS'stone'
p85
F0.0004222972972972973
sS'working'
p86
F0.001266891891891892
sS'industry'
p87
F0.001266891891891892
sS'heating'
p88
F0.0029560810810810812
sS'side'
p89
F0.0008445945945945946
sS'silicon'
p90
F0.0059121621621621625
sS'american'
p91
F0.0004222972972972973
sS'produce'
p92
F0.008445945945945946
sS'products'
p93
F0.003800675675675676
sS'section'
p94
F0.0004222972972972973
sS'south'
p95
F0.0004222972972972973
sS'ores'
p96
F0.0033783783783783786
sS'copper'
p97
F0.003800675675675676
sS'major'
p98
F0.0004222972972972973
sS'industrial'
p99
F0.0046452702702702705
sS'point'
p100
F0.0008445945945945946
sS'bricks'
p101
F0.002533783783783784
sS'xyz'
p102
F0.06165540540540541
sS'calcium'
p103
F0.005489864864864865
sS'bath'
p104
F0.004222972972972973
sS'smaller'
p105
F0.0021114864864864866
sS'directly'
p106
F0.0016891891891891893
sS'heated'
p107
F0.0033783783783783786
sS'smelters'
p108
F0.005489864864864865
sS'open'
p109
F0.004222972972972973
sS'market'
p110
F0.0016891891891891893
sS'lime'
p111
F0.004222972972972973
sS'city'
p112
F0.001266891891891892
sS'light'
p113
F0.0008445945945945946
sS'puddling'
p114
F0.0029560810810810812
sS'quality'
p115
F0.003800675675675676
sS'source'
p116
F0.0016891891891891893
sS'top'
p117
F0.00633445945945946
sS'due'
p118
F0.002533783783783784
sS'reduction'
p119
F0.005067567567567568
sS'wood'
p120
F0.0004222972972972973
sS'low'
p121
F0.003800675675675676
sS'passed'
p122
F0.0004222972972972973
sS'basic'
p123
F0.0059121621621621625
sS'brick'
p124
F0.0004222972972972973
sS'bellows'
p125
F0.0004222972972972973
sS'type'
p126
F0.00633445945945946
sS'war'
p127
F0.001266891891891892
sS'today'
p128
F0.0008445945945945946
sS'charcoal'
p129
F0.001266891891891892
sS'form'
p130
F0.003800675675675676
sS'coke'
p131
F0.014358108108108109
sS'continuous'
p132
F0.0021114864864864866
sS'gas'
p133
F0.0029560810810810812
sS'slag'
p134
F0.01900337837837838
sS'finery'
p135
F0.0046452702702702705
sS'heat'
p136
F0.0021114864864864866
sS'part'
p137
F0.0004222972972972973
sS'known'
p138
F0.0016891891891891893
sS'line'
p139
F0.001266891891891892
sS'pieces'
p140
F0.0029560810810810812
sS'producing'
p141
F0.0033783783783783786
sS'center'
p142
F0.0004222972972972973
sS'plants'
p143
F0.0029560810810810812
sS'states'
p144
F0.0004222972972972973
sS'include'
p145
F0.0059121621621621625
sS'car'
p146
F0.0016891891891891893
sS'air'
p147
F0.008868243243243243
sS'cast'
p148
F0.001266891891891892
sS'oxide'
p149
F0.009712837837837838
sS'growth'
p150
F0.0004222972972972973
sS'graphite'
p151
F0.0059121621621621625
sS'temperatures'
p152
F0.0059121621621621625
sS'iron'
p153
F0.03927364864864865
sS'henry'
p154
F0.002533783783783784
sS'making'
p155
F0.0046452702702702705
sS'problem'
p156
F0.0008445945945945946
sS'similar'
p157
F0.004222972972972973
sS'called'
p158
F0.002533783783783784
sS'required'
p159
F0.001266891891891892
sS'steam'
p160
F0.0008445945945945946
sS'process'
p161
F0.02660472972972973
sS'metal'
p162
F0.014358108108108109
sS'modern'
p163
F0.0004222972972972973
sS'locations'
p164
F0.0004222972972972973
sS'surface'
p165
F0.0008445945945945946
sS'according'
p166
F0.0021114864864864866
sS'high'
p167
F0.014780405405405405
sS'allowed'
p168
F0.0033783783783783786
sS'stoves'
p169
F0.0016891891891891893
sS'seen'
p170
F0.0004222972972972973
sS'times'
p171
F0.0004222972972972973
sS'technology'
p172
F0.003800675675675676
sS'reverberatory'
p173
F0.003800675675675676
sS'machine'
p174
F0.0016891891891891893
sS'forced'
p175
F0.001266891891891892
sS'strength'
p176
F0.005489864864864865
sS'court'
p177
F0.0004222972972972973
sS'inches'
p178
F0.0008445945945945946
sS'concrete'
p179
F0.0029560810810810812
sS'cross'
p180
F0.0004222972972972973
sS'chemical'
p181
F0.002533783783783784
sS'hot'
p182
F0.0059121621621621625
sS'parts'
p183
F0.003800675675675676
sS'adjacent'
p184
F0.0008445945945945946
sS'main'
p185
F0.001266891891891892
sS'resulting'
p186
F0.005067567567567568
sS'furnace'
p187
F0.025760135135135136
sS'development'
p188
F0.0004222972972972973
sS'plant'
p189
F0.0021114864864864866
sS'added'
p190
F0.0008445945945945946
sS'blocks'
p191
F0.0016891891891891893
sS'electric'
p192
F0.028293918918918918
sS'provided'
p193
F0.001266891891891892
sS'cement'
p194
F0.010557432432432432
sS'hand'
p195
F0.0004222972972972973
sS'important'
p196
F0.0016891891891891893
sS'power'
p197
F0.0008445945945945946
sS'designed'
p198
F0.0033783783783783786
sS'included'
p199
F0.0021114864864864866
sS'backyard'
p200
F0.0016891891891891893
sS'extremely'
p201
F0.0008445945945945946
sS'monoxide'
p202
F0.0033783783783783786
sS'lower'
p203
F0.0021114864864864866
sS'especially'
p204
F0.0008445945945945946
sS'liquid'
p205
F0.005067567567567568
sS'glass'
p206
F0.015202702702702704
sS'amount'
p207
F0.0021114864864864866
sS'later'
p208
F0.0008445945945945946
sS'flow'
p209
F0.001266891891891892
sS'walked'
p210
F0.0004222972972972973
sS'face'
p211
F0.0004222972972972973
sS'coal'
p212
F0.0071790540540540545
sS'materials'
p213
F0.006756756756756757
sS'mass'
p214
F0.0046452702702702705
sS'refining'
p215
F0.002533783783783784
sS'smelting'
p216
F0.009290540540540541
sS'typically'
p217
F0.0046452702702702705
sS'order'
p218
F0.002533783783783784
sS'left'
p219
F0.0004222972972972973
ssI2
(dp220
S'summer'
p221
F0.0006230529595015577
sS'neighborhood'
p222
F0.004984423676012461
sS'john'
p223
F0.0006230529595015577
sS'suburban'
p224
F0.003738317757009346
sS'move'
p225
F0.001869158878504673
sg2
F0.0024922118380062306
sg6
F0.0024922118380062306
sS'spaces'
p226
F0.006853582554517134
sg8
F0.006230529595015576
sS'speed'
p227
F0.009345794392523364
sS'children'
p228
F0.0012461059190031153
sg19
F0.003115264797507788
sS'bicycles'
p229
F0.008722741433021807
sS'bike'
p230
F0.004984423676012461
sS'segway'
p231
F0.014953271028037384
sS'crack'
p232
F0.004984423676012461
sS'covered'
p233
F0.006230529595015576
sg145
F0.001869158878504673
sS'local'
p234
F0.0012461059190031153
sS'eventually'
p235
F0.005607476635514018
sS'means'
p236
F0.003115264797507788
sg58
F0.0012461059190031153
sS'designated'
p237
F0.006230529595015576
sS'vehicles'
p238
F0.009345794392523364
sg28
F0.0006230529595015577
sS'historic'
p239
F0.0006230529595015577
sS'traffic'
p240
F0.012461059190031152
sS'half'
p241
F0.0006230529595015577
sS'front'
p242
F0.0006230529595015577
sS'bigger'
p243
F0.0006230529595015577
sS'areas'
p244
F0.004361370716510903
sS'term'
p245
F0.01059190031152648
sS'wooden'
p246
F0.001869158878504673
sS'university'
p247
F0.004984423676012461
sg37
F0.0006230529595015577
sS'pavement'
p248
F0.006230529595015576
sS'steps'
p249
F0.004361370716510903
sg39
F0.003115264797507788
sg40
F0.001869158878504673
sg42
F0.004984423676012461
sS'sidewalk'
p250
F0.03551401869158879
sS'river'
p251
F0.0006230529595015577
sS'originally'
p252
F0.0006230529595015577
sS'mean'
p253
F0.004361370716510903
sg44
F0.0024922118380062306
sS'square'
p254
F0.0006230529595015577
sS'bicycle'
p255
F0.00809968847352025
sS'house'
p256
F0.0006230529595015577
sS'streets'
p257
F0.001869158878504673
sg50
F0.0012461059190031153
sg150
F0.003115264797507788
sg52
F0.0012461059190031153
sS'parking'
p258
F0.0012461059190031153
sg53
F0.001869158878504673
sS'home'
p259
F0.0006230529595015577
sg55
F0.001869158878504673
sg59
F0.0006230529595015577
sS'stands'
p260
F0.004984423676012461
sS'driving'
p261
F0.001869158878504673
sg63
F0.006853582554517134
sg94
F0.003738317757009346
sS'ice'
p262
F0.0024922118380062306
sg66
F0.003738317757009346
sg72
F0.005607476635514018
sS'public'
p263
F0.009968847352024923
sS'filled'
p264
F0.0006230529595015577
sS'wide'
p265
F0.0012461059190031153
sg54
F0.007476635514018692
sS'opening'
p266
F0.0006230529595015577
sS'cars'
p267
F0.001869158878504673
sS'hours'
p268
F0.0006230529595015577
sS'put'
p269
F0.0006230529595015577
sS'path'
p270
F0.006853582554517134
sS'owners'
p271
F0.003738317757009346
sS'central'
p272
F0.005607476635514018
sg157
F0.0024922118380062306
sS'region'
p273
F0.0006230529595015577
sS'cafes'
p274
F0.0012461059190031153
sS'british'
p275
F0.004361370716510903
sS'caf'
p276
F0.0006230529595015577
sg207
F0.0024922118380062306
sg85
F0.003738317757009346
sS'residents'
p277
F0.0024922118380062306
sS'restaurants'
p278
F0.0012461059190031153
sS'makes'
p279
F0.0006230529595015577
sS'road'
p280
F0.020560747663551402
sg98
F0.0012461059190031153
sS'love'
p281
F0.0006230529595015577
sg17
F0.00809968847352025
sg101
F0.0024922118380062306
sg102
F0.10093457943925234
sS'number'
p282
F0.003115264797507788
sS'private'
p283
F0.004361370716510903
sg104
F0.0006230529595015577
sg106
F0.001869158878504673
sg200
F0.003115264797507788
sS'roads'
p284
F0.02118380062305296
sS'art'
p285
F0.0012461059190031153
sg110
F0.0006230529595015577
sS'red'
p286
F0.0006230529595015577
sg112
F0.017445482866043614
sS'ancient'
p287
F0.001869158878504673
sS'area'
p288
F0.003115264797507788
sg118
F0.003115264797507788
sS'noticed'
p289
F0.007476635514018692
sS'strip'
p290
F0.0006230529595015577
sg121
F0.0012461059190031153
sS'lot'
p291
F0.0006230529595015577
sg69
F0.005607476635514018
sg124
F0.012461059190031152
sg125
F0.0006230529595015577
sg126
F0.003115264797507788
sg128
F0.004361370716510903
sS'paved'
p292
F0.008722741433021807
sS'urban'
p293
F0.009968847352024923
sS'lanes'
p294
F0.009345794392523364
sg178
F0.00809968847352025
sS'started'
p295
F0.011214953271028037
sS'company'
p296
F0.001869158878504673
sg132
F0.003115264797507788
sg133
F0.0006230529595015577
sg203
F0.005607476635514018
sS'downtown'
p297
F0.004361370716510903
sS'construction'
p298
F0.004984423676012461
sS'riding'
p299
F0.006853582554517134
sg138
F0.0006230529595015577
sg141
F0.0006230529595015577
sS'white'
p300
F0.0012461059190031153
sg144
F0.016822429906542057
sg21
F0.0006230529595015577
sS'word'
p301
F0.0006230529595015577
sS'inside'
p302
F0.0012461059190031153
sS'expanded'
p303
F0.0006230529595015577
sS'street'
p304
F0.001869158878504673
sg154
F0.0006230529595015577
sg155
F0.0006230529595015577
sg156
F0.004361370716510903
sS'property'
p305
F0.003738317757009346
sS'segways'
p306
F0.01059190031152648
sg158
F0.008722741433021807
sS'bridge'
p307
F0.0006230529595015577
sg159
F0.004984423676012461
sS'san'
p308
F0.007476635514018692
sS'century'
p309
F0.0024922118380062306
sg164
F0.009345794392523364
sg165
F0.001869158878504673
sS'evidence'
p310
F0.0006230529595015577
sg167
F0.003115264797507788
sS'pedestrian'
p311
F0.022429906542056073
sS'curb'
p312
F0.006230529595015576
sg168
F0.007476635514018692
sS'north'
p313
F0.004361370716510903
sS'counting'
p314
F0.00809968847352025
sg172
F0.0006230529595015577
sS'campus'
p315
F0.005607476635514018
sS'constructed'
p316
F0.01059190031152648
sS'united'
p317
F0.020560747663551402
sg177
F0.004984423676012461
sg130
F0.0006230529595015577
sS'floor'
p318
F0.0006230529595015577
sS'winter'
p319
F0.0012461059190031153
sS'surfing'
p320
F0.006853582554517134
sS'sidewalks'
p321
F0.03613707165109034
sg180
F0.004361370716510903
sS'parks'
p322
F0.004361370716510903
sS'located'
p323
F0.0006230529595015577
sg183
F0.0012461059190031153
sg184
F0.0006230529595015577
sS'department'
p324
F0.0012461059190031153
sS'stepped'
p325
F0.005607476635514018
sg131
F0.0006230529595015577
sg188
F0.0006230529595015577
sS'buildings'
p326
F0.005607476635514018
sS'students'
p327
F0.0012461059190031153
sS'park'
p328
F0.001869158878504673
sS'boing'
p329
F0.009968847352024923
sS'driver'
p330
F0.0006230529595015577
sg194
F0.0012461059190031153
sS'regular'
p331
F0.006230529595015576
sS'user'
p332
F0.006853582554517134
sg199
F0.0012461059190031153
sg25
F0.0012461059190031153
sS'america'
p333
F0.007476635514018692
sS'structure'
p334
F0.0012461059190031153
sg171
F0.001869158878504673
sS'lane'
p335
F0.004361370716510903
sS'land'
p336
F0.001869158878504673
sS'natural'
p337
F0.0006230529595015577
sg142
F0.001869158878504673
sS'pennsylvania'
p338
F0.0006230529595015577
sS'pedestrians'
p339
F0.011214953271028037
sg208
F0.0012461059190031153
sg162
F0.0012461059190031153
sS'drive'
p340
F0.0012461059190031153
sg210
F0.007476635514018692
sg211
F0.0006230529595015577
sg179
F0.014953271028037384
sg137
F0.0012461059190031153
sg95
F0.003738317757009346
sS'allow'
p341
F0.003738317757009346
sS'english'
p342
F0.014330218068535825
sg91
F0.004984423676012461
sg217
F0.0024922118380062306
sg218
F0.0006230529595015577
sS'lying'
p343
F0.001869158878504673
sg219
F0.0006230529595015577
ssI3
(dp344
g221
F0.0006161429451632779
sg38
F0.0006161429451632779
sg6
F0.0036968576709796672
sg8
F0.005545286506469501
sg9
F0.0036968576709796672
sS'cold'
p345
F0.010474430067775724
sg11
F0.004929143561306223
sS'railroad'
p346
F0.0006161429451632779
sg13
F0.0012322858903265558
sg14
F0.004929143561306223
sS'death'
p347
F0.016019716574245224
sg15
F0.004313000616142945
sg16
F0.0061614294516327784
sS'young'
p348
F0.0006161429451632779
sg18
F0.0012322858903265558
sS'resort'
p349
F0.009242144177449169
sS'window'
p350
F0.0006161429451632779
sg20
F0.0012322858903265558
sS'systems'
p351
F0.00862600123228589
sg232
F0.0012322858903265558
sS'fuel'
p352
F0.009858287122612447
sg233
F0.0006161429451632779
sg21
F0.0012322858903265558
sg234
F0.0006161429451632779
sg295
F0.0012322858903265558
sg235
F0.0006161429451632779
sg23
F0.004929143561306223
sg236
F0.0012322858903265558
sg58
F0.0024645717806531116
sg237
F0.0018484288354898336
sg27
F0.0024645717806531116
sg28
F0.0006161429451632779
sg29
F0.0024645717806531116
sg239
F0.0024645717806531116
sS'foot'
p353
F0.0006161429451632779
sg137
F0.0012322858903265558
sg244
F0.0012322858903265558
sS'feet'
p354
F0.0006161429451632779
sg245
F0.0012322858903265558
sg127
F0.0006161429451632779
sg34
F0.0018484288354898336
sS'morning'
p355
F0.0006161429451632779
sg37
F0.0036968576709796672
sg39
F0.0018484288354898336
sS'night'
p356
F0.0006161429451632779
sg41
F0.0018484288354898336
sg251
F0.0018484288354898336
sg43
F0.0012322858903265558
sg253
F0.0024645717806531116
sS'creek'
p357
F0.021565003080714726
sg47
F0.015403573629081947
sg257
F0.0012322858903265558
sg189
F0.0030807147258163892
sg50
F0.0036968576709796672
sS'oil'
p358
F0.006777572396796057
sg52
F0.004313000616142945
sS'close'
p359
F0.0030807147258163892
sS'operation'
p360
F0.0006161429451632779
sg10
F0.0006161429451632779
sS'heaters'
p361
F0.00862600123228589
sg60
F0.0006161429451632779
sS'space'
p362
F0.005545286506469501
sg63
F0.0006161429451632779
sg94
F0.0030807147258163892
sg65
F0.0061614294516327784
sg66
F0.0030807147258163892
sg67
F0.0006161429451632779
sg263
F0.0012322858903265558
sS'hill'
p363
F0.0006161429451632779
sg71
F0.004929143561306223
sg72
F0.0006161429451632779
sg74
F0.0018484288354898336
sg89
F0.0012322858903265558
sS'sloss'
p364
F0.006777572396796057
sS'august'
p365
F0.004313000616142945
sg197
F0.013555144793592114
sg40
F0.0006161429451632779
sS'pewee'
p366
F0.008009858287122612
sg268
F0.0018484288354898336
sg80
F0.0006161429451632779
sg269
F0.0018484288354898336
sg81
F0.0018484288354898336
sg82
F0.0012322858903265558
sS'change'
p367
F0.0006161429451632779
sg84
F0.0006161429451632779
sg85
F0.0006161429451632779
sg272
F0.0030807147258163892
sg86
F0.0006161429451632779
sg87
F0.0030807147258163892
sS'larger'
p368
F0.0006161429451632779
sS'days'
p369
F0.0036968576709796672
sg276
F0.0006161429451632779
sS'turn'
p370
F0.0018484288354898336
sg207
F0.0012322858903265558
sg179
F0.0018484288354898336
sS'moving'
p371
F0.0061614294516327784
sg279
F0.005545286506469501
sg96
F0.0006161429451632779
sg238
F0.0006161429451632779
sg98
F0.0036968576709796672
sg99
F0.0006161429451632779
sS'burning'
p372
F0.005545286506469501
sg100
F0.004313000616142945
sg19
F0.0006161429451632779
sg102
F0.08194701170671596
sS'washington'
p373
F0.0006161429451632779
sg282
F0.0012322858903265558
sg283
F0.0012322858903265558
sS'county'
p374
F0.0006161429451632779
sS'weather'
p375
F0.008009858287122612
sg106
F0.0012322858903265558
sg107
F0.006777572396796057
sS'reached'
p376
F0.0061614294516327784
sg109
F0.0024645717806531116
sg46
F0.0006161429451632779
sg287
F0.0006161429451632779
sg83
F0.033271719038817
sg115
F0.0012322858903265558
sg288
F0.0030807147258163892
sS'festival'
p377
F0.01170671595810228
sg117
F0.0006161429451632779
sS'system'
p378
F0.012322858903265557
sS'station'
p379
F0.005545286506469501
sS'music'
p380
F0.0006161429451632779
sg121
F0.0073937153419593345
sS'fiery'
p381
F0.0024645717806531116
sg69
F0.0006161429451632779
sg215
F0.0024645717806531116
sS'valley'
p382
F0.019100431300061615
sg126
F0.0012322858903265558
sS'mary'
p383
F0.0006161429451632779
sS'door'
p384
F0.0012322858903265558
sg130
F0.004313000616142945
sS'fire'
p385
F0.005545286506469501
sg296
F0.0018484288354898336
sg132
F0.0012322858903265558
sg133
F0.027110289587184228
sS'watched'
p386
F0.0006161429451632779
sg159
F0.0012322858903265558
sg297
F0.0018484288354898336
sg206
F0.004313000616142945
sg136
F0.03512014787430684
sg298
F0.0036968576709796672
sS'solar'
p387
F0.020948860135551448
sg138
F0.0012322858903265558
sg142
F0.0012322858903265558
sg143
F0.0006161429451632779
sg144
F0.0012322858903265558
sg145
F0.004929143561306223
sg301
F0.0018484288354898336
sS'room'
p388
F0.004929143561306223
sg303
F0.004313000616142945
sS'roof'
p389
F0.0036968576709796672
sg147
F0.024645717806531114
sg148
F0.0006161429451632779
sg149
F0.0024645717806531116
sg151
F0.0012322858903265558
sg152
F0.009858287122612447
sg155
F0.0012322858903265558
sg156
F0.0018484288354898336
sg305
F0.0018484288354898336
sg157
F0.004313000616142945
sg158
F0.0030807147258163892
sS'control'
p390
F0.004929143561306223
sS'ranch'
p391
F0.00862600123228589
sg308
F0.0006161429451632779
sg161
F0.0036968576709796672
sS'turned'
p392
F0.0030807147258163892
sS'site'
p393
F0.0030807147258163892
sg165
F0.0061614294516327784
sg166
F0.0006161429451632779
sg167
F0.0166358595194085
sS'inn'
p394
F0.006777572396796057
sg160
F0.00862600123228589
sg168
F0.0012322858903265558
sg169
F0.004313000616142945
sg294
F0.0006161429451632779
sg316
F0.0006161429451632779
sg260
F0.0024645717806531116
sg175
F0.0018484288354898336
sg317
F0.0006161429451632779
sg25
F0.006777572396796057
sS'built'
p395
F0.004929143561306223
sg318
F0.0006161429451632779
sg116
F0.010474430067775724
sg319
F0.0018484288354898336
sS'generally'
p396
F0.0030807147258163892
sg322
F0.0018484288354898336
sg181
F0.0036968576709796672
sg323
F0.0018484288354898336
sg182
F0.004929143561306223
sg213
F0.004929143561306223
sg184
F0.0018484288354898336
sg324
F0.0006161429451632779
sg187
F0.02649414664202095
sg326
F0.0006161429451632779
sg190
F0.0006161429451632779
sg192
F0.0024645717806531116
sg193
F0.0006161429451632779
sg328
F0.004929143561306223
sg195
F0.0006161429451632779
sS'william'
p397
F0.0030807147258163892
sS'running'
p398
F0.0006161429451632779
sg92
F0.0018484288354898336
sS'lighting'
p399
F0.005545286506469501
sg198
F0.0018484288354898336
sg78
F0.036352433764633395
sg199
F0.0018484288354898336
sg200
F0.0006161429451632779
sg333
F0.0006161429451632779
sg201
F0.004929143561306223
sg334
F0.005545286506469501
sg202
F0.0030807147258163892
sS'building'
p400
F0.0006161429451632779
sg337
F0.012322858903265557
sg204
F0.0006161429451632779
sg205
F0.0006161429451632779
sg259
F0.0012322858903265558
sg113
F0.004313000616142945
sg208
F0.0024645717806531116
sg209
F0.0073937153419593345
sg211
F0.0006161429451632779
sg212
F0.0024645717806531116
sg88
F0.014787430683918669
sg341
F0.0018484288354898336
sg217
F0.0012322858903265558
sg343
F0.0006161429451632779
sg219
F0.0006161429451632779
ssI4
(dp401
S'shop'
p402
F0.002727768685215494
sg221
F0.0032733224222585926
sg2
F0.005455537370430988
sS'shot'
p403
F0.003000545553737043
sg3
F0.00027277686852154935
sg4
F0.00027277686852154935
sg224
F0.001363884342607747
sg225
F0.0019094380796508457
sg293
F0.0024549918166939444
sg170
F0.0032733224222585926
sg242
F0.012002182214948172
sg339
F0.0024549918166939444
sg8
F0.0008183306055646482
sS'parked'
p404
F0.0032733224222585926
sS'corner'
p405
F0.0035460992907801418
sg345
F0.00027277686852154935
sg11
F0.006546644844517185
sg228
F0.002727768685215494
sg13
F0.00027277686852154935
sg238
F0.00027277686852154935
sS'looking'
p406
F0.00436442989634479
sg347
F0.00027277686852154935
sg15
F0.0010911074740861974
sS'took'
p407
F0.0038188761593016913
sg17
F0.00027277686852154935
sg348
F0.002727768685215494
sg117
F0.0038188761593016913
sg18
F0.002182214948172395
sS'wall'
p408
F0.003000545553737043
sg350
F0.0024549918166939444
sg230
F0.001363884342607747
sS'black'
p409
F0.005182760501909438
sg232
F0.00027277686852154935
sg375
F0.0008183306055646482
sg233
F0.001363884342607747
sg21
F0.0032733224222585926
sg234
F0.00436442989634479
sg295
F0.0019094380796508457
sg22
F0.00027277686852154935
sS'woman'
p410
F0.005455537370430988
sg398
F0.002727768685215494
sg236
F0.001363884342607747
sS'rolling'
p411
F0.0008183306055646482
sg290
F0.003000545553737043
sg245
F0.00027277686852154935
sS'trees'
p412
F0.006273867975995636
sg27
F0.00027277686852154935
sS'dark'
p413
F0.003000545553737043
sS'band'
p414
F0.0008183306055646482
sg239
F0.003000545553737043
sg240
F0.00436442989634479
sg241
F0.004637206764866339
sg353
F0.0038188761593016913
sg137
F0.005182760501909438
sg134
F0.00027277686852154935
sg31
F0.0032733224222585926
sg243
F0.002727768685215494
sg244
F0.0035460992907801418
sg354
F0.004091653027823241
sS'school'
p415
F0.002727768685215494
sS'scene'
p416
F0.003000545553737043
sg36
F0.0008183306055646482
sg246
F0.0035460992907801418
sg247
F0.001363884342607747
sg386
F0.004091653027823241
sg355
F0.003000545553737043
sg37
F0.0035460992907801418
sg248
F0.0005455537370430987
sg226
F0.00027277686852154935
sg249
F0.0035460992907801418
sg39
F0.00027277686852154935
sg356
F0.0057283142389525366
sg41
F0.006273867975995636
sg42
F0.0070921985815602835
sg250
F0.00436442989634479
sg251
F0.0016366612111292963
sg252
F0.0035460992907801418
sg278
F0.0032733224222585926
sS'set'
p417
F0.005455537370430988
sg285
F0.0032733224222585926
sg256
F0.010638297872340425
sg47
F0.0005455537370430987
sg257
F0.012002182214948172
sg189
F0.00027277686852154935
sS'police'
p418
F0.004091653027823241
sS'past'
p419
F0.003000545553737043
sg50
F0.0005455537370430987
sg358
F0.0008183306055646482
sg52
F0.00027277686852154935
sg258
F0.004637206764866339
sg53
F0.0010911074740861974
sg359
F0.003000545553737043
sg56
F0.002182214948172395
sg57
F0.001363884342607747
sS'stood'
p420
F0.004909983633387889
sg60
F0.002182214948172395
sg261
F0.0019094380796508457
sg362
F0.002182214948172395
sg262
F0.002182214948172395
sg14
F0.0005455537370430987
sg174
F0.0005455537370430987
sg363
F0.002182214948172395
sg223
F0.0008183306055646482
sg71
F0.0016366612111292963
sg73
F0.001363884342607747
sg263
F0.005182760501909438
sg264
F0.002727768685215494
sg89
F0.00872885979268958
sS'body'
p421
F0.0035460992907801418
sg75
F0.002182214948172395
sg365
F0.0005455537370430987
sg77
F0.00027277686852154935
sg266
F0.003000545553737043
sg267
F0.0032733224222585926
sg40
F0.00027277686852154935
sS'free'
p422
F0.004909983633387889
sg268
F0.003000545553737043
sS'houses'
p423
F0.0038188761593016913
sg79
F0.0010911074740861974
sg29
F0.0016366612111292963
sS'york'
p424
F0.004909983633387889
sg269
F0.004909983633387889
sg49
F0.0019094380796508457
sS'shops'
p425
F0.002182214948172395
sg367
F0.0038188761593016913
sS'takes'
p426
F0.003000545553737043
sg271
F0.0016366612111292963
sg305
F0.0010911074740861974
sg272
F0.0008183306055646482
sg273
F0.0005455537370430987
sg274
F0.002727768685215494
sg369
F0.0024549918166939444
sg275
F0.0005455537370430987
sg276
F0.002727768685215494
sg370
F0.002727768685215494
sg91
F0.001363884342607747
sg92
F0.00027277686852154935
sS'place'
p427
F0.008183306055646482
sS'smoke'
p428
F0.0016366612111292963
sg371
F0.0035460992907801418
sg277
F0.002182214948172395
sS'narrow'
p429
F0.004637206764866339
sg279
F0.0005455537370430987
sS'think'
p430
F0.003000545553737043
sS'block'
p431
F0.004637206764866339
sS'nearby'
p432
F0.0032733224222585926
sg97
F0.0005455537370430987
sg99
F0.0010911074740861974
sg281
F0.002182214948172395
sg372
F0.00027277686852154935
sg100
F0.002182214948172395
sg101
F0.00027277686852154935
sg102
F0.1601200218221495
sg373
F0.002727768685215494
sg282
F0.004909983633387889
sg283
F0.0008183306055646482
sg104
F0.0005455537370430987
sg374
F0.00027277686852154935
sg20
F0.00027277686852154935
sg105
F0.0010911074740861974
sS'thought'
p433
F0.003000545553737043
sg106
F0.001363884342607747
sS'church'
p434
F0.002727768685215494
sg284
F0.00027277686852154935
sg222
F0.004091653027823241
sg109
F0.004637206764866339
sg110
F0.0024549918166939444
sg286
F0.004091653027823241
sS'standing'
p435
F0.004091653027823241
sg112
F0.018276050190943808
sS'story'
p436
F0.0032733224222585926
sg287
F0.00027277686852154935
sg379
F0.0008183306055646482
sg86
F0.002727768685215494
sg288
F0.0057283142389525366
sg377
F0.0005455537370430987
sS'west'
p437
F0.00436442989634479
sS'museum'
p438
F0.0035460992907801418
sg118
F0.0005455537370430987
sg289
F0.00027277686852154935
sg122
F0.003000545553737043
sS'live'
p439
F0.0032733224222585926
sS'going'
p440
F0.0038188761593016913
sg380
F0.002727768685215494
sg381
F0.002182214948172395
sg124
F0.002182214948172395
sg125
F0.00027277686852154935
sg126
F0.0005455537370430987
sg383
F0.002727768685215494
sS'store'
p441
F0.0032733224222585926
sg185
F0.004091653027823241
sS'eyes'
p442
F0.002727768685215494
sg384
F0.006273867975995636
sg291
F0.002727768685215494
sg130
F0.0010911074740861974
sg320
F0.0008183306055646482
sg385
F0.004637206764866339
sg296
F0.0032733224222585926
sg328
F0.0038188761593016913
sg203
F0.00027277686852154935
sg159
F0.0010911074740861974
sg297
F0.0032733224222585926
sg206
F0.0008183306055646482
sg298
F0.0008183306055646482
sS'child'
p443
F0.002182214948172395
sg138
F0.004091653027823241
sg139
F0.0057283142389525366
sg310
F0.00027277686852154935
sg300
F0.00845608292416803
sg142
F0.0005455537370430987
sg143
F0.0005455537370430987
sg265
F0.003000545553737043
sg145
F0.004091653027823241
sg301
F0.0019094380796508457
sS'look'
p444
F0.005455537370430988
sg146
F0.006546644844517185
sg302
F0.003000545553737043
sg303
F0.0005455537370430987
sg389
F0.0016366612111292963
sg147
F0.0005455537370430987
sS'chalk'
p445
F0.0010911074740861974
sg148
F0.0008183306055646482
sg304
F0.03600654664484452
sg128
F0.0019094380796508457
sg113
F0.00436442989634479
sg393
F0.00027277686852154935
sg155
F0.001363884342607747
sg156
F0.0005455537370430987
sS'grass'
p446
F0.0032733224222585926
sg157
F0.0005455537370430987
sg158
F0.0035460992907801418
sg390
F0.0019094380796508457
sg307
F0.001363884342607747
sg368
F0.0005455537370430987
sg160
F0.00027277686852154935
sg83
F0.0005455537370430987
sg54
F0.00027277686852154935
sg12
F0.0019094380796508457
sg163
F0.002182214948172395
sg392
F0.002182214948172395
sS'head'
p447
F0.005455537370430988
sg165
F0.0008183306055646482
sg166
F0.0005455537370430987
sg167
F0.0008183306055646482
sg312
F0.0032733224222585926
sg259
F0.004637206764866339
sg294
F0.0016366612111292963
sg171
F0.0019094380796508457
sS'saw'
p448
F0.0057283142389525366
sg315
F0.0008183306055646482
sS'film'
p449
F0.005455537370430988
sg316
F0.0010911074740861974
sg175
F0.0010911074740861974
sg25
F0.00436442989634479
sg395
F0.0057283142389525366
sg318
F0.001363884342607747
sg319
F0.002182214948172395
sS'began'
p450
F0.005455537370430988
sS'song'
p451
F0.003000545553737043
sg396
F0.0010911074740861974
sg180
F0.0010911074740861974
sg322
F0.001363884342607747
sg181
F0.00027277686852154935
sg323
F0.00436442989634479
sg182
F0.0008183306055646482
sg213
F0.00027277686852154935
sg254
F0.0038188761593016913
sg184
F0.0024549918166939444
sg324
F0.002182214948172395
sg93
F0.00027277686852154935
sg325
F0.001363884342607747
sg187
F0.00027277686852154935
sg188
F0.0005455537370430987
sg85
F0.0008183306055646482
sg326
F0.004909983633387889
sg190
F0.0016366612111292963
sg191
F0.0019094380796508457
sg193
F0.0016366612111292963
sg327
F0.0024549918166939444
sg120
F0.00027277686852154935
sg140
F0.0008183306055646482
sg330
F0.003000545553737043
sg195
F0.004909983633387889
sS'walk'
p452
F0.006819421713038734
sS'town'
p453
F0.00436442989634479
sS'moment'
p454
F0.0032733224222585926
sg196
F0.0005455537370430987
sg399
F0.0008183306055646482
sg199
F0.0019094380796508457
sg177
F0.00027277686852154935
sg95
F0.0038188761593016913
sg260
F0.0005455537370430987
sg400
F0.009547190398254229
sg28
F0.002182214948172395
sg335
F0.001363884342607747
sg336
F0.003000545553737043
sg204
F0.002182214948172395
sg388
F0.0032733224222585926
sg207
F0.0008183306055646482
sg208
F0.0035460992907801418
sg162
F0.0008183306055646482
sg340
F0.0024549918166939444
sg210
F0.0024549918166939444
sg211
F0.0035460992907801418
sS'looked'
p455
F0.0032733224222585926
sg88
F0.00027277686852154935
sg214
F0.0005455537370430987
sg280
F0.0024549918166939444
sg341
F0.0008183306055646482
sg313
F0.004909983633387889
sg217
F0.00027277686852154935
sg218
F0.001363884342607747
sg343
F0.0019094380796508457
sg219
F0.007364975450081833
ssI5
(dp456
g402
F0.0005470459518599562
sg3
F0.005470459518599562
sg4
F0.0038293216630196935
sg5
F0.002735229759299781
sg7
F0.002188183807439825
sg8
F0.0010940919037199124
sg9
F0.0010940919037199124
sg345
F0.0010940919037199124
sg22
F0.022975929978118162
sg15
F0.0005470459518599562
sg18
F0.0087527352297593
sg116
F0.0005470459518599562
sg20
F0.01477024070021882
sg409
F0.0005470459518599562
sg352
F0.012035010940919038
sg185
F0.002735229759299781
sg234
F0.0032822757111597373
sg235
F0.002735229759299781
sg23
F0.0010940919037199124
sg173
F0.0016411378555798686
sg236
F0.0010940919037199124
sS'cupola'
p457
F0.006564551422319475
sg120
F0.007111597374179431
sg412
F0.0005470459518599562
sg27
F0.012035010940919038
sg28
F0.011487964989059081
sg414
F0.002735229759299781
sg241
F0.0016411378555798686
sg346
F0.006017505470459519
sg30
F0.047045951859956234
sg244
F0.002188183807439825
sg415
F0.0005470459518599562
sg36
F0.0032822757111597373
sg263
F0.0010940919037199124
sg37
F0.006017505470459519
sg39
F0.0005470459518599562
sg356
F0.0005470459518599562
sg41
F0.002735229759299781
sg42
F0.0032822757111597373
sg251
F0.010940919037199124
sg252
F0.0016411378555798686
sg44
F0.002735229759299781
sg45
F0.004923413566739606
sg285
F0.0010940919037199124
sg46
F0.0032822757111597373
sg256
F0.0005470459518599562
sg47
F0.0005470459518599562
sg48
F0.002735229759299781
sg419
F0.0005470459518599562
sg50
F0.0010940919037199124
sg150
F0.0032822757111597373
sg52
F0.0005470459518599562
sg376
F0.0005470459518599562
sg53
F0.002188183807439825
sg259
F0.0016411378555798686
sg360
F0.006017505470459519
sg10
F0.009299781181619256
sg57
F0.00437636761487965
sg59
F0.002735229759299781
sg60
F0.006017505470459519
sg261
F0.0016411378555798686
sg61
F0.002188183807439825
sg65
F0.002735229759299781
sg363
F0.0010940919037199124
sg72
F0.0005470459518599562
sg73
F0.0010940919037199124
sg74
F0.0010940919037199124
sg286
F0.002188183807439825
sg89
F0.0005470459518599562
sg75
F0.0010940919037199124
sg76
F0.002735229759299781
sg197
F0.0038293216630196935
sg32
F0.0005470459518599562
sg268
F0.0005470459518599562
sg79
F0.0038293216630196935
sg80
F0.006564551422319475
sg418
F0.0010940919037199124
sg38
F0.015317286652078774
sg425
F0.002735229759299781
sg331
F0.0005470459518599562
sg85
F0.0010940919037199124
sS'works'
p458
F0.021334792122538294
sg272
F0.0016411378555798686
sg87
F0.010940919037199124
sg368
F0.006017505470459519
sg166
F0.002188183807439825
sg275
F0.002188183807439825
sg43
F0.0005470459518599562
sg91
F0.002188183807439825
sg92
F0.0087527352297593
sg427
F0.0010940919037199124
sg428
F0.006017505470459519
sg431
F0.0005470459518599562
sg96
F0.0032822757111597373
sg97
F0.00437636761487965
sg98
F0.0032822757111597373
sg99
F0.010393873085339168
sg372
F0.0038293216630196935
sg19
F0.0005470459518599562
sg102
F0.0836980306345733
sS'mills'
p459
F0.010393873085339168
sg373
F0.0005470459518599562
sg282
F0.0010940919037199124
sg374
F0.009299781181619256
sg411
F0.005470459518599562
sg417
F0.002188183807439825
sg434
F0.0016411378555798686
sg222
F0.0005470459518599562
sS'zinc'
p460
F0.010940919037199124
sg110
F0.0005470459518599562
sg111
F0.0005470459518599562
sg287
F0.006017505470459519
sg105
F0.0010940919037199124
sg114
F0.006017505470459519
sg86
F0.0005470459518599562
sg288
F0.005470459518599562
sg377
F0.0005470459518599562
sg118
F0.002188183807439825
sg119
F0.0005470459518599562
sg379
F0.0016411378555798686
sg121
F0.0038293216630196935
sg381
F0.002735229759299781
sg123
F0.0005470459518599562
sg124
F0.0005470459518599562
sg125
F0.006017505470459519
sg127
F0.00437636761487965
sg129
F0.007111597374179431
sg442
F0.0005470459518599562
sg313
F0.0005470459518599562
sg385
F0.0016411378555798686
sg296
F0.0087527352297593
sg328
F0.0005470459518599562
sg203
F0.0005470459518599562
sg358
F0.0005470459518599562
sg137
F0.004923413566739606
sg138
F0.007111597374179431
sg12
F0.0005470459518599562
sg140
F0.0010940919037199124
sg141
F0.007658643326039387
sg142
F0.0032822757111597373
sg143
F0.0010940919037199124
sg144
F0.002735229759299781
sg223
F0.006017505470459519
sg444
F0.0005470459518599562
sg302
F0.0005470459518599562
sg303
F0.0005470459518599562
sg147
F0.0005470459518599562
sg148
F0.016958424507658644
sg153
F0.09299781181619256
sg154
F0.002735229759299781
sg155
F0.006017505470459519
sg156
F0.0010940919037199124
sg157
F0.002188183807439825
sg158
F0.0032822757111597373
sg307
F0.0016411378555798686
sg159
F0.002735229759299781
sg308
F0.0005470459518599562
sg309
F0.032275711159737416
sg161
F0.0032822757111597373
sg163
F0.007658643326039387
sg393
F0.006017505470459519
sg310
F0.005470459518599562
sg167
F0.0010940919037199124
sg168
F0.0016411378555798686
sg134
F0.0005470459518599562
sg171
F0.0038293216630196935
sg172
F0.002188183807439825
sg316
F0.0016411378555798686
sg175
F0.0005470459518599562
sg176
F0.0005470459518599562
sg25
F0.0016411378555798686
sg395
F0.007658643326039387
sg318
F0.0005470459518599562
sg450
F0.00437636761487965
sg451
F0.0010940919037199124
sg396
F0.0005470459518599562
sg174
F0.0032822757111597373
sg295
F0.0005470459518599562
sg182
F0.002735229759299781
sg183
F0.0010940919037199124
sg24
F0.0010940919037199124
sg93
F0.0005470459518599562
sg187
F0.012035010940919038
sg131
F0.016958424507658644
sg188
F0.00437636761487965
sg189
F0.0016411378555798686
sg190
F0.0010940919037199124
sg26
F0.02024070021881838
sg215
F0.0010940919037199124
sg193
F0.004923413566739606
sg317
F0.0005470459518599562
sg397
F0.002735229759299781
sg453
F0.0032822757111597373
sg454
F0.0005470459518599562
sg196
F0.007111597374179431
sg199
F0.0016411378555798686
sg200
F0.0005470459518599562
sg201
F0.0016411378555798686
sg400
F0.0010940919037199124
sg335
F0.0010940919037199124
sg204
F0.0005470459518599562
sg338
F0.005470459518599562
sg208
F0.005470459518599562
sg162
F0.00437636761487965
sg212
F0.018052516411378557
sg214
F0.002735229759299781
sg95
F0.0010940919037199124
sg341
F0.0010940919037199124
sg273
F0.004923413566739606
sg216
F0.010393873085339168
ssI6
(dp461
g257
F0.07692307692307693
sg285
F0.07692307692307693
sg36
F0.07692307692307693
sg338
F0.07692307692307693
sg321
F0.07692307692307693
sg163
F0.07692307692307693
sg396
F0.07692307692307693
sg445
F0.3076923076923077
sg103
F0.07692307692307693
sg337
F0.07692307692307693
ss.