(dp0
I1
(dp1
S'paul'
p2
F0.000864304235090752
sS'gold'
p3
F0.00216076058772688
sS'developed'
p4
F0.001728608470181504
sS'produced'
p5
F0.011668107173725151
sS'thermal'
p6
F0.0025929127052722557
sS'limestone'
p7
F0.0025929127052722557
sS'including'
p8
F0.003025064822817632
sS'zinc'
p9
F0.000432152117545376
sS'cold'
p10
F0.000432152117545376
sS'worked'
p11
F0.0025929127052722557
sS'ground'
p12
F0.007346585998271392
sS'current'
p13
F0.000432152117545376
sS'based'
p14
F0.003457216940363008
sS'electricity'
p15
F0.0012964563526361278
sS'grade'
p16
F0.003025064822817632
sS'production'
p17
F0.016421780466724288
sS'fuel'
p18
F0.000864304235090752
sS'include'
p19
F0.006914433880726016
sS'steel'
p20
F0.03197925669835782
sS'non'
p21
F0.001728608470181504
sS'reverberatory'
p22
F0.004753673292999135
sS'means'
p23
F0.000432152117545376
sS'material'
p24
F0.006914433880726016
sS'furnaces'
p25
F0.01944684528954192
sS'methods'
p26
F0.00216076058772688
sS'part'
p27
F0.0025929127052722557
sS'blast'
p28
F0.030682800345721694
sS'hall'
p29
F0.0012964563526361278
sS'molten'
p30
F0.007778738115816767
sS'processes'
p31
F0.007778738115816767
sS'oxygen'
p32
F0.010803802938634399
sS'shaped'
p33
F0.000864304235090752
sS'large'
p34
F0.003025064822817632
sS'common'
p35
F0.0012964563526361278
sS'rock'
p36
F0.003025064822817632
sS'small'
p37
F0.0012964563526361278
sS'originally'
p38
F0.000432152117545376
sS'revolution'
p39
F0.0012964563526361278
sS'fired'
p40
F0.0038893690579083835
sS'energy'
p41
F0.00216076058772688
sS'product'
p42
F0.005185825410544511
sS'group'
p43
F0.000864304235090752
sS'arc'
p44
F0.023336214347450302
sS'transportation'
p45
F0.0012964563526361278
sS'portland'
p46
F0.004753673292999135
sS'mill'
p47
F0.000432152117545376
sS'medieval'
p48
F0.000432152117545376
sS'established'
p49
F0.000864304235090752
sS'scale'
p50
F0.0038893690579083835
sS'opened'
p51
F0.00216076058772688
sS'bottom'
p52
F0.00648228176318064
sS'hroult'
p53
F0.004753673292999135
sS'quality'
p54
F0.003025064822817632
sS'scrap'
p55
F0.003025064822817632
sS'research'
p56
F0.0012964563526361278
sS'content'
p57
F0.005185825410544511
sS'granulated'
p58
F0.004753673292999135
sS'dioxide'
p59
F0.005185825410544511
sS'burned'
p60
F0.004753673292999135
sS'size'
p61
F0.003025064822817632
sS'conditions'
p62
F0.000864304235090752
sS'method'
p63
F0.006914433880726016
sS'side'
p64
F0.000432152117545376
sS'led'
p65
F0.000864304235090752
sS'iron'
p66
F0.032843560933448576
sS'bessemer'
p67
F0.009939498703543647
sS'free'
p68
F0.000864304235090752
sS'water'
p69
F0.000432152117545376
sS'carbon'
p70
F0.028522039757994815
sS'ash'
p71
F0.005185825410544511
sS'temperature'
p72
F0.003457216940363008
sS'reaction'
p73
F0.00432152117545376
sS'industry'
p74
F0.0012964563526361278
sS'according'
p75
F0.000432152117545376
sS'reduced'
p76
F0.009939498703543647
sS'silicon'
p77
F0.006050129645635264
sS'amount'
p78
F0.00216076058772688
sS'produce'
p79
F0.0056179775280898875
sS'products'
p80
F0.003025064822817632
sS'smoke'
p81
F0.000864304235090752
sS'makes'
p82
F0.00216076058772688
sS'ores'
p83
F0.00432152117545376
sS'copper'
p84
F0.004753673292999135
sS'major'
p85
F0.0012964563526361278
sS'industrial'
p86
F0.006914433880726016
sS'burning'
p87
F0.000432152117545376
sS'point'
p88
F0.001728608470181504
sS'bricks'
p89
F0.003457216940363008
sS'xyz'
p90
F0.06741573033707865
sS'number'
p91
F0.00216076058772688
sS'bath'
p92
F0.005185825410544511
sS'smaller'
p93
F0.001728608470181504
sS'directly'
p94
F0.0012964563526361278
sS'heated'
p95
F0.0038893690579083835
sS'reached'
p96
F0.000432152117545376
sS'smelters'
p97
F0.005185825410544511
sS'open'
p98
F0.00432152117545376
sS'market'
p99
F0.001728608470181504
sS'lime'
p100
F0.0038893690579083835
sS'ore'
p101
F0.01296456352636128
sS'puddling'
p102
F0.0025929127052722557
sS'source'
p103
F0.00216076058772688
sS'top'
p104
F0.0056179775280898875
sS'due'
p105
F0.001728608470181504
sS'reduction'
p106
F0.0038893690579083835
sS'wood'
p107
F0.0012964563526361278
sS'music'
p108
F0.000864304235090752
sS'low'
p109
F0.003025064822817632
sS'passed'
p110
F0.000432152117545376
sS'basic'
p111
F0.00648228176318064
sS'brick'
p112
F0.000432152117545376
sS'type'
p113
F0.003457216940363008
sS'today'
p114
F0.000864304235090752
sS'charcoal'
p115
F0.00216076058772688
sS'form'
p116
F0.005185825410544511
sS'started'
p117
F0.0012964563526361278
sS'company'
p118
F0.00216076058772688
sS'continuous'
p119
F0.003457216940363008
sS'gas'
p120
F0.0038893690579083835
sS'finery'
p121
F0.0038893690579083835
sS'heat'
p122
F0.000432152117545376
sS'construction'
p123
F0.0012964563526361278
sS'known'
p124
F0.003457216940363008
sS'line'
p125
F0.000864304235090752
sS'pig'
p126
F0.00432152117545376
sS'producing'
p127
F0.0025929127052722557
sS'plants'
p128
F0.000864304235090752
sS'states'
p129
F0.001728608470181504
sS'main'
p130
F0.000432152117545376
sS'inside'
p131
F0.000432152117545376
sS'air'
p132
F0.00950734658599827
sS'calcium'
p133
F0.006050129645635264
sS'oxide'
p134
F0.009075194468452896
sS'growth'
p135
F0.000432152117545376
sS'graphite'
p136
F0.00648228176318064
sS'temperatures'
p137
F0.005185825410544511
sS'hand'
p138
F0.000432152117545376
sS'henry'
p139
F0.0012964563526361278
sS'making'
p140
F0.006050129645635264
sS'problem'
p141
F0.000432152117545376
sS'similar'
p142
F0.003025064822817632
sS'called'
p143
F0.00432152117545376
sS'san'
p144
F0.000864304235090752
sS'century'
p145
F0.0012964563526361278
sS'process'
p146
F0.027225583405358685
sS'metal'
p147
F0.014261019878997408
sS'site'
p148
F0.000864304235090752
sS'surface'
p149
F0.000432152117545376
sS'pieces'
p150
F0.003457216940363008
sS'high'
p151
F0.016421780466724288
sS'steam'
p152
F0.000864304235090752
sS'allowed'
p153
F0.003457216940363008
sS'slag'
p154
F0.01944684528954192
sS'times'
p155
F0.000432152117545376
sS'technology'
p156
F0.00432152117545376
sS'constructed'
p157
F0.000432152117545376
sS'machine'
p158
F0.0012964563526361278
sS'forced'
p159
F0.003457216940363008
sS'strength'
p160
F0.004753673292999135
sS'inches'
p161
F0.000864304235090752
sS'concrete'
p162
F0.003025064822817632
sS'began'
p163
F0.000432152117545376
sS'generally'
p164
F0.000864304235090752
sS'chemical'
p165
F0.0038893690579083835
sS'hot'
p166
F0.006050129645635264
sS'parts'
p167
F0.003457216940363008
sS'pure'
p168
F0.006914433880726016
sS'test'
p169
F0.0025929127052722557
sS'resulting'
p170
F0.004753673292999135
sS'furnace'
p171
F0.02679343128781331
sS'coke'
p172
F0.016421780466724288
sS'development'
p173
F0.000864304235090752
sS'plant'
p174
F0.00216076058772688
sS'added'
p175
F0.000864304235090752
sS'blocks'
p176
F0.000864304235090752
sS'electric'
p177
F0.027657735522904063
sS'provided'
p178
F0.000864304235090752
sS'students'
p179
F0.000432152117545376
sS'cement'
p180
F0.00950734658599827
sS'impurities'
p181
F0.006050129645635264
sS'important'
p182
F0.0025929127052722557
sS'power'
p183
F0.003025064822817632
sS'designed'
p184
F0.0025929127052722557
sS'included'
p185
F0.00216076058772688
sS'backyard'
p186
F0.000432152117545376
sS'extremely'
p187
F0.001728608470181504
sS'structure'
p188
F0.000864304235090752
sS'monoxide'
p189
F0.00432152117545376
sS'united'
p190
F0.00216076058772688
sS'lower'
p191
F0.00216076058772688
sS'natural'
p192
F0.000432152117545376
sS'especially'
p193
F0.000432152117545376
sS'liquid'
p194
F0.005185825410544511
sS'glass'
p195
F0.01598962834917891
sS'required'
p196
F0.003457216940363008
sS'flow'
p197
F0.0025929127052722557
sS'drive'
p198
F0.000432152117545376
sS'coal'
p199
F0.008210890233362144
sS'materials'
p200
F0.008210890233362144
sS'mass'
p201
F0.004753673292999135
sS'refining'
p202
F0.003457216940363008
sS'smelting'
p203
F0.00950734658599827
sS'typically'
p204
F0.005185825410544511
sS'order'
p205
F0.000432152117545376
ssI2
(dp206
S'summer'
p207
F0.0013297872340425532
sg79
F0.003989361702127659
sg6
F0.0026595744680851063
sg8
F0.003324468085106383
sg10
F0.008643617021276596
sS'avenue'
p208
F0.005319148936170213
sg158
F0.0026595744680851063
sS'death'
p209
F0.015292553191489361
sg14
F0.003989361702127659
sg15
F0.006648936170212766
sS'late'
p210
F0.0019946808510638296
sS'resort'
p211
F0.00997340425531915
sg17
F0.0019946808510638296
sS'systems'
p212
F0.008643617021276596
sS'crack'
p213
F0.0006648936170212766
sg18
F0.008643617021276596
sS'covered'
p214
F0.0006648936170212766
sS'east'
p215
F0.0006648936170212766
sS'local'
p216
F0.0019946808510638296
sS'eventually'
p217
F0.0006648936170212766
sg21
F0.0026595744680851063
sg23
F0.0019946808510638296
sg24
F0.003324468085106383
sS'designated'
p218
F0.0006648936170212766
sS'term'
p219
F0.0013297872340425532
sg25
F0.0013297872340425532
sg26
F0.0019946808510638296
sS'historic'
p220
F0.0019946808510638296
sg178
F0.0006648936170212766
sS'railroad'
p221
F0.0006648936170212766
sS'walk'
p222
F0.0006648936170212766
sS'areas'
p223
F0.0006648936170212766
sS'feet'
p224
F0.0006648936170212766
sS'school'
p225
F0.0006648936170212766
sg34
F0.007313829787234043
sS'pavement'
p226
F0.0006648936170212766
sS'weather'
p227
F0.010638297872340425
sg35
F0.0006648936170212766
sS'night'
p228
F0.0019946808510638296
sS'found'
p229
F0.0013297872340425532
sg152
F0.00997340425531915
sS'mean'
p230
F0.003989361702127659
sS'heavy'
p231
F0.0013297872340425532
sS'set'
p232
F0.0006648936170212766
sS'creek'
p233
F0.02327127659574468
sS'house'
p234
F0.0006648936170212766
sg41
F0.015957446808510637
sS'strip'
p235
F0.0026595744680851063
sS'surrounding'
p236
F0.003989361702127659
sS'oil'
p237
F0.003989361702127659
sS'design'
p238
F0.0006648936170212766
sS'close'
p239
F0.0019946808510638296
sS'operation'
p240
F0.0019946808510638296
sg47
F0.0006648936170212766
sS'heaters'
p241
F0.008643617021276596
sg51
F0.0013297872340425532
sS'space'
p242
F0.007978723404255319
sS'speed'
p243
F0.0013297872340425532
sS'recorded'
p244
F0.009308510638297872
sg56
F0.0013297872340425532
sg13
F0.0026595744680851063
sg60
F0.004654255319148936
sg100
F0.0006648936170212766
sg62
F0.0019946808510638296
sg63
F0.0006648936170212766
sS'filled'
p245
F0.0006648936170212766
sS'august'
p246
F0.005319148936170213
sg183
F0.007978723404255319
sS'opening'
p247
F0.0006648936170212766
sg36
F0.0006648936170212766
sg68
F0.0006648936170212766
sS'hours'
p248
F0.0006648936170212766
sS'china'
p249
F0.0006648936170212766
sS'york'
p250
F0.0006648936170212766
sS'put'
p251
F0.0006648936170212766
sS'region'
p252
F0.0006648936170212766
sS'shops'
p253
F0.0006648936170212766
sg73
F0.0006648936170212766
sS'stone'
p254
F0.0013297872340425532
sS'days'
p255
F0.005319148936170213
sS'central'
p256
F0.003324468085106383
sg74
F0.003989361702127659
sS'larger'
p257
F0.0019946808510638296
sS'heating'
p258
F0.015957446808510637
sS'turn'
p259
F0.0019946808510638296
sg78
F0.0013297872340425532
sg162
F0.0006648936170212766
sg161
F0.0006648936170212766
sS'moving'
p260
F0.004654255319148936
sg82
F0.003989361702127659
sg203
F0.0006648936170212766
sS'vehicles'
p261
F0.0006648936170212766
sg85
F0.0026595744680851063
sg86
F0.0006648936170212766
sg87
F0.005984042553191489
sg88
F0.003324468085106383
sg16
F0.0006648936170212766
sg90
F0.09773936170212766
sg91
F0.0006648936170212766
sS'private'
p262
F0.0019946808510638296
sg92
F0.0006648936170212766
sS'county'
p263
F0.0019946808510638296
sg93
F0.0006648936170212766
sg94
F0.003324468085106383
sg95
F0.005984042553191489
sg96
F0.004654255319148936
sg97
F0.0006648936170212766
sg98
F0.0019946808510638296
sg40
F0.0006648936170212766
sS'city'
p264
F0.0013297872340425532
sS'ancient'
p265
F0.0006648936170212766
sg72
F0.03590425531914894
sS'area'
p266
F0.003324468085106383
sS'festival'
p267
F0.013297872340425532
sS'system'
p268
F0.011303191489361703
sS'live'
p269
F0.0006648936170212766
sS'station'
p270
F0.005984042553191489
sg109
F0.010638297872340425
sS'white'
p271
F0.0006648936170212766
sS'valley'
p272
F0.01928191489361702
sg113
F0.004654255319148936
sS'war'
p273
F0.0019946808510638296
sS'urban'
p274
F0.0006648936170212766
sS'door'
p275
F0.0013297872340425532
sg116
F0.003324468085106383
sS'fire'
p276
F0.0026595744680851063
sg118
F0.0013297872340425532
sg120
F0.027925531914893616
sS'downtown'
p277
F0.0019946808510638296
sg195
F0.004654255319148936
sg122
F0.04055851063829787
sg123
F0.003324468085106383
sS'solar'
p278
F0.022606382978723406
sg124
F0.0006648936170212766
sS'sloss'
p279
F0.006648936170212766
sg128
F0.0026595744680851063
sg129
F0.0019946808510638296
sg19
F0.003989361702127659
sS'word'
p280
F0.0026595744680851063
sS'room'
p281
F0.003989361702127659
sS'car'
p282
F0.0006648936170212766
sS'expanded'
p283
F0.005984042553191489
sS'roof'
p284
F0.003324468085106383
sg132
F0.025930851063829786
sS'chalk'
p285
F0.0006648936170212766
sS'cast'
p286
F0.0006648936170212766
sg134
F0.003324468085106383
sg136
F0.0006648936170212766
sg137
F0.011303191489361703
sg141
F0.0026595744680851063
sS'property'
p287
F0.0019946808510638296
sg142
F0.0026595744680851063
sg143
F0.004654255319148936
sS'control'
p288
F0.007313829787234043
sS'ranch'
p289
F0.009308510638297872
sg144
F0.0013297872340425532
sg145
F0.0006648936170212766
sg146
F0.0006648936170212766
sg147
F0.004654255319148936
sS'turned'
p290
F0.0019946808510638296
sg148
F0.0013297872340425532
sg149
F0.005984042553191489
sS'evidence'
p291
F0.0006648936170212766
sg151
F0.015957446808510637
sS'inn'
p292
F0.006648936170212766
sS'stoves'
p293
F0.0026595744680851063
sg156
F0.0006648936170212766
sS'stands'
p294
F0.0013297872340425532
sg190
F0.0019946808510638296
sS'end'
p295
F0.010638297872340425
sS'built'
p296
F0.0026595744680851063
sS'floor'
p297
F0.0006648936170212766
sg103
F0.007978723404255319
sS'winter'
p298
F0.003324468085106383
sg164
F0.0019946808510638296
sS'parks'
p299
F0.0006648936170212766
sg165
F0.0013297872340425532
sS'located'
p300
F0.0013297872340425532
sg166
F0.003324468085106383
sg167
F0.0006648936170212766
sS'adjacent'
p301
F0.0019946808510638296
sg80
F0.0013297872340425532
sg171
F0.024601063829787235
sg174
F0.003324468085106383
sg175
F0.0026595744680851063
sg177
F0.003989361702127659
sg49
F0.0006648936170212766
sS'park'
p302
F0.004654255319148936
sS'william'
p303
F0.003324468085106383
sS'running'
p304
F0.0013297872340425532
sg182
F0.0006648936170212766
sS'lighting'
p305
F0.005984042553191489
sg184
F0.0019946808510638296
sg69
F0.03590425531914894
sg187
F0.005984042553191489
sg188
F0.004654255319148936
sg189
F0.0019946808510638296
sS'building'
p306
F0.0026595744680851063
sg192
F0.012632978723404254
sS'center'
p307
F0.0006648936170212766
sg194
F0.0006648936170212766
sS'light'
p308
F0.005319148936170213
sS'later'
p309
F0.003324468085106383
sg197
F0.005984042553191489
sS'face'
p310
F0.0006648936170212766
sS'thought'
p311
F0.0006648936170212766
sg199
F0.003324468085106383
sg200
F0.003989361702127659
sg202
F0.0013297872340425532
sS'english'
p312
F0.0006648936170212766
sg204
F0.0019946808510638296
sS'left'
p313
F0.0006648936170212766
ssI3
(dp314
S'shop'
p315
F0.00280014000700035
sg207
F0.0035001750087504373
sS'walking'
p316
F0.005950297514875744
sS'shot'
p317
F0.0035001750087504373
sg3
F0.0010500525026251313
sg4
F0.0007000350017500875
sS'suburban'
p318
F0.0017500875043752187
sS'move'
p319
F0.003150157507875394
sS'seen'
p320
F0.004550227511375569
sS'front'
p321
F0.01575078753937697
sg298
F0.0010500525026251313
sS'pedestrians'
p322
F0.001400070003500175
sS'parked'
p323
F0.004200210010500525
sS'corner'
p324
F0.004550227511375569
sg10
F0.00035001750087504374
sg208
F0.0056002800140007
sS'children'
p325
F0.003150157507875394
sg12
F0.001400070003500175
sg261
F0.00035001750087504374
sS'looking'
p326
F0.0056002800140007
sg209
F0.001400070003500175
sg14
F0.001400070003500175
sS'took'
p327
F0.004550227511375569
sS'presence'
p328
F0.0010500525026251313
sS'young'
p329
F0.0038501925096254812
sg210
F0.001400070003500175
sg103
F0.00035001750087504374
sS'window'
p330
F0.0035001750087504373
sS'bike'
p331
F0.0021001050052502626
sS'black'
p332
F0.006650332516625832
sg213
F0.0007000350017500875
sg215
F0.003150157507875394
sg110
F0.0035001750087504373
sg217
F0.00035001750087504374
sg21
F0.00035001750087504374
sS'woman'
p333
F0.006650332516625832
sg304
F0.003150157507875394
sS'song'
p334
F0.0035001750087504373
sg24
F0.00035001750087504374
sg126
F0.0007000350017500875
sS'trees'
p335
F0.0035001750087504373
sS'scene'
p336
F0.0038501925096254812
sS'dark'
p337
F0.0038501925096254812
sS'band'
p338
F0.002450122506125306
sS'traffic'
p339
F0.0010500525026251313
sS'half'
p340
F0.005950297514875744
sS'foot'
p341
F0.004550227511375569
sg27
F0.00035001750087504374
sg29
F0.0021001050052502626
sS'bigger'
p342
F0.003150157507875394
sg223
F0.00035001750087504374
sg225
F0.0035001750087504373
sg33
F0.00035001750087504374
sS'wooden'
p343
F0.0017500875043752187
sS'watched'
p344
F0.0056002800140007
sS'morning'
p345
F0.004200210010500525
sg34
F0.0038501925096254812
sS'steps'
p346
F0.004200210010500525
sS'red'
p347
F0.005250262513125656
sg228
F0.006650332516625832
sg37
F0.007350367518375919
sg229
F0.004550227511375569
sS'sidewalk'
p348
F0.006650332516625832
sS'river'
p349
F0.00035001750087504374
sg38
F0.00280014000700035
sg230
F0.00035001750087504374
sg231
F0.0007000350017500875
sg232
F0.006650332516625832
sS'art'
p350
F0.002450122506125306
sg40
F0.00035001750087504374
sg234
F0.01400070003500175
sg41
F0.0007000350017500875
sg95
F0.00035001750087504374
sg308
F0.004550227511375569
sS'police'
p351
F0.0056002800140007
sS'past'
p352
F0.0038501925096254812
sS'street'
p353
F0.03185159257962898
sS'parking'
p354
F0.0038501925096254812
sS'operated'
p355
F0.00035001750087504374
sg239
F0.004550227511375569
sg2
F0.00280014000700035
sg49
F0.00035001750087504374
sS'stood'
p356
F0.006300315015750788
sg51
F0.001400070003500175
sS'driving'
p357
F0.0007000350017500875
sg52
F0.00035001750087504374
sg243
F0.00035001750087504374
sg55
F0.00035001750087504374
sg244
F0.00035001750087504374
sS'ice'
p358
F0.00035001750087504374
sg56
F0.00035001750087504374
sg13
F0.001400070003500175
sS'public'
p359
F0.001400070003500175
sS'hill'
p360
F0.003150157507875394
sS'wide'
p361
F0.00035001750087504374
sg60
F0.0007000350017500875
sg61
F0.0007000350017500875
sg62
F0.00035001750087504374
sg63
F0.00035001750087504374
sg245
F0.0017500875043752187
sg64
F0.009100455022751138
sS'body'
p362
F0.004550227511375569
sg65
F0.0021001050052502626
sg246
F0.00035001750087504374
sg247
F0.0035001750087504373
sS'cars'
p363
F0.0035001750087504373
sS'restaurants'
p364
F0.0010500525026251313
sg68
F0.004200210010500525
sg248
F0.005250262513125656
sS'houses'
p365
F0.00280014000700035
sS'step'
p366
F0.002450122506125306
sg169
F0.0017500875043752187
sg250
F0.0056002800140007
sg251
F0.0056002800140007
sg43
F0.002450122506125306
sg253
F0.0010500525026251313
sS'change'
p367
F0.004900245012250612
sS'owners'
p368
F0.0010500525026251313
sg256
F0.00035001750087504374
sg74
F0.0007000350017500875
sS'cafes'
p369
F0.001400070003500175
sg255
F0.0021001050052502626
sS'caf'
p370
F0.0035001750087504373
sg259
F0.0035001750087504373
sS'american'
p371
F0.0007000350017500875
sg161
F0.00035001750087504374
sg81
F0.0010500525026251313
sS'residents'
p372
F0.003150157507875394
sS'narrow'
p373
F0.003150157507875394
sg82
F0.00035001750087504374
sS'think'
p374
F0.0038501925096254812
sS'block'
p375
F0.006300315015750788
sS'nearby'
p376
F0.0038501925096254812
sg84
F0.00035001750087504374
sg85
F0.00035001750087504374
sg270
F0.001400070003500175
sS'love'
p377
F0.00280014000700035
sg87
F0.0010500525026251313
sg88
F0.002450122506125306
sS'wall'
p378
F0.0035001750087504373
sg90
F0.17955897794889744
sS'washington'
p379
F0.0035001750087504373
sg91
F0.0021001050052502626
sg222
F0.005950297514875744
sg224
F0.004900245012250612
sS'rolling'
p380
F0.001400070003500175
sg93
F0.0017500875043752187
sg311
F0.003150157507875394
sg94
F0.0017500875043752187
sS'church'
p381
F0.004200210010500525
sS'neighborhood'
p382
F0.002450122506125306
sg98
F0.005950297514875744
sg99
F0.0035001750087504373
sg26
F0.00035001750087504374
sS'standing'
p383
F0.005250262513125656
sg264
F0.012250612530626532
sS'story'
p384
F0.004200210010500525
sg265
F0.001400070003500175
sS'takes'
p385
F0.00280014000700035
sS'working'
p386
F0.0038501925096254812
sg266
F0.00035001750087504374
sg267
F0.0007000350017500875
sS'west'
p387
F0.0035001750087504373
sg104
F0.005950297514875744
sg268
F0.00035001750087504374
sS'noticed'
p388
F0.001400070003500175
sg235
F0.001400070003500175
sg269
F0.002450122506125306
sS'going'
p389
F0.004900245012250612
sg108
F0.0021001050052502626
sg109
F0.00035001750087504374
sS'fiery'
p390
F0.005950297514875744
sg112
F0.00035001750087504374
sS'bellows'
p391
F0.00035001750087504374
sg113
F0.0010500525026251313
sS'mary'
p392
F0.0035001750087504373
sS'store'
p393
F0.004200210010500525
sS'eyes'
p394
F0.002450122506125306
sS'streets'
p395
F0.0038501925096254812
sg275
F0.008050402520126006
sS'lot'
p396
F0.0038501925096254812
sg116
F0.0007000350017500875
sg276
F0.00840042002100105
sg118
F0.0038501925096254812
sg302
F0.002450122506125306
sg191
F0.00035001750087504374
sS'south'
p397
F0.0021001050052502626
sg195
F0.00035001750087504374
sg123
F0.00035001750087504374
sg242
F0.0017500875043752187
sS'child'
p398
F0.002450122506125306
sg124
F0.0007000350017500875
sg125
F0.007000350017500875
sg150
F0.00035001750087504374
sg127
F0.0007000350017500875
sg271
F0.009450472523626182
sg307
F0.0017500875043752187
sg128
F0.0007000350017500875
sg129
F0.00035001750087504374
sg130
F0.0038501925096254812
sg280
F0.001400070003500175
sS'look'
p399
F0.007000350017500875
sg282
F0.009100455022751138
sg131
F0.004200210010500525
sg283
F0.00035001750087504374
sg284
F0.0021001050052502626
sg132
F0.00035001750087504374
sg285
F0.0010500525026251313
sg114
F0.0021001050052502626
sg139
F0.0007000350017500875
sg140
F0.001400070003500175
sg141
F0.0021001050052502626
sS'grass'
p400
F0.003150157507875394
sg142
F0.001400070003500175
sg143
F0.0017500875043752187
sg288
F0.0007000350017500875
sS'bridge'
p401
F0.0010500525026251313
sg257
F0.0007000350017500875
sg145
F0.0007000350017500875
sg146
F0.00035001750087504374
sg11
F0.003150157507875394
sS'modern'
p402
F0.0007000350017500875
sg290
F0.003150157507875394
sS'head'
p403
F0.006650332516625832
sg149
F0.001400070003500175
sg75
F0.00280014000700035
sg151
F0.0017500875043752187
sS'curb'
p404
F0.0038501925096254812
sS'home'
p405
F0.008050402520126006
sS'north'
p406
F0.0038501925096254812
sS'saw'
p407
F0.007000350017500875
sS'campus'
p408
F0.0007000350017500875
sS'film'
p409
F0.005250262513125656
sg157
F0.0021001050052502626
sg159
F0.0007000350017500875
sg295
F0.0021001050052502626
sg296
F0.0038501925096254812
sg297
F0.0021001050052502626
sg156
F0.00035001750087504374
sg163
F0.0017500875043752187
sg164
F0.0007000350017500875
sS'cross'
p410
F0.00035001750087504374
sg299
F0.0007000350017500875
sg117
F0.0035001750087504373
sg166
F0.0017500875043752187
sS'square'
p411
F0.0038501925096254812
sg301
F0.0007000350017500875
sS'department'
p412
F0.001400070003500175
sS'place'
p413
F0.009800490024501224
sS'stepped'
p414
F0.0017500875043752187
sg171
F0.0007000350017500875
sS'buildings'
p415
F0.0017500875043752187
sg237
F0.0017500875043752187
sg176
F0.0010500525026251313
sg177
F0.00035001750087504374
sg178
F0.0017500875043752187
sg179
F0.003150157507875394
sS'driver'
p416
F0.00280014000700035
sg180
F0.0007000350017500875
sg138
F0.006300315015750788
sg303
F0.00035001750087504374
sS'town'
p417
F0.0021001050052502626
sS'moment'
p418
F0.004550227511375569
sg182
F0.0010500525026251313
sg260
F0.004900245012250612
sg185
F0.00280014000700035
sg186
F0.0007000350017500875
sg294
F0.0010500525026251313
sg306
F0.010850542527126356
sS'early'
p419
F0.00280014000700035
sS'lane'
p420
F0.0021001050052502626
sS'land'
p421
F0.00035001750087504374
sg193
F0.0017500875043752187
sg281
F0.004550227511375569
sS'pennsylvania'
p422
F0.00035001750087504374
sg78
F0.00035001750087504374
sg309
F0.0035001750087504373
sg147
F0.0010500525026251313
sg198
F0.002450122506125306
sS'walked'
p423
F0.004200210010500525
sg310
F0.004200210010500525
sS'looked'
p424
F0.0038501925096254812
sg199
F0.0010500525026251313
sg258
F0.0007000350017500875
sg201
F0.00035001750087504374
sS'road'
p425
F0.00280014000700035
sS'allow'
p426
F0.001400070003500175
sg312
F0.00035001750087504374
sg96
F0.0007000350017500875
sg252
F0.0010500525026251313
sg205
F0.00035001750087504374
sS'lying'
p427
F0.0021001050052502626
sg313
F0.008050402520126006
ssI4
(dp428
g207
F0.0010476689366160294
sg316
F0.003143006809848088
sS'sidewalks'
p429
F0.029334730225248823
sg318
F0.003143006809848088
sg319
F0.0005238344683080147
sg5
F0.0005238344683080147
sg6
F0.0005238344683080147
sg322
F0.010476689366160294
sg8
F0.006809848088004191
sg208
F0.003666841278156103
sg43
F0.0005238344683080147
sg210
F0.0010476689366160294
sg16
F0.0026191723415400735
sS'bicycles'
p430
F0.003666841278156103
sg331
F0.003666841278156103
sS'segway'
p431
F0.012572027239392353
sg214
F0.007333682556312206
sg215
F0.0010476689366160294
sg216
F0.005762179151388162
sg217
F0.003143006809848088
sg23
F0.003143006809848088
sg24
F0.001571503404924044
sg218
F0.005238344683080147
sg335
F0.005762179151388162
sg25
F0.0010476689366160294
sg419
F0.0010476689366160294
sg220
F0.004714510214772132
sg339
F0.016238868517548456
sg340
F0.0005238344683080147
sg221
F0.0005238344683080147
sg154
F0.0005238344683080147
sg342
F0.0005238344683080147
sg223
F0.00995285489785228
sg219
F0.00890518596123625
sg343
F0.0041906757464641176
sS'university'
p432
F0.006809848088004191
sS'works'
p433
F0.0005238344683080147
sg34
F0.003666841278156103
sg226
F0.005762179151388162
sS'spaces'
p434
F0.006286013619696176
sg35
F0.0026191723415400735
sg36
F0.001571503404924044
sg37
F0.0005238344683080147
sg229
F0.00995285489785228
sg348
F0.0178103719224725
sg349
F0.0020953378732320588
sg64
F0.005238344683080147
sg230
F0.0020953378732320588
sg231
F0.001571503404924044
sg411
F0.001571503404924044
sS'bicycle'
p435
F0.006809848088004191
sg395
F0.0178103719224725
sg42
F0.0005238344683080147
sg308
F0.001571503404924044
sg351
F0.0005238344683080147
sg236
F0.0020953378732320588
sg135
F0.0020953378732320588
sg238
F0.0010476689366160294
sg354
F0.0041906757464641176
sg355
F0.001571503404924044
sg46
F0.0020953378732320588
sg49
F0.0026191723415400735
sg50
F0.0005238344683080147
sg357
F0.0005238344683080147
sg243
F0.006286013619696176
sg55
F0.0005238344683080147
sg358
F0.003666841278156103
sg56
F0.0010476689366160294
sg62
F0.0005238344683080147
sg359
F0.0178103719224725
sg245
F0.0026191723415400735
sg361
F0.006286013619696176
sg45
F0.006286013619696176
sg48
F0.0005238344683080147
sg363
F0.0026191723415400735
sg364
F0.005238344683080147
sg68
F0.001571503404924044
sg365
F0.0026191723415400735
sS'path'
p436
F0.005762179151388162
sg71
F0.0005238344683080147
sg253
F0.0020953378732320588
sg367
F0.0005238344683080147
sg72
F0.001571503404924044
sg368
F0.004714510214772132
sg287
F0.005238344683080147
sg256
F0.005762179151388162
sg252
F0.0010476689366160294
sg369
F0.0041906757464641176
sS'british'
p437
F0.004714510214772132
sg155
F0.0020953378732320588
sg371
F0.006286013619696176
sg413
F0.0005238344683080147
sS'section'
p438
F0.005762179151388162
sg260
F0.0005238344683080147
sg372
F0.0005238344683080147
sg373
F0.003666841278156103
sg425
F0.015191199580932426
sg376
F0.0005238344683080147
sg84
F0.0005238344683080147
sg85
F0.0005238344683080147
sg328
F0.005762179151388162
sg89
F0.001571503404924044
sg90
F0.09219486642221059
sg379
F0.0005238344683080147
sg91
F0.004714510214772132
sg262
F0.004714510214772132
sg268
F0.0005238344683080147
sg186
F0.0005238344683080147
sS'roads'
p439
F0.018334206390780514
sg382
F0.003143006809848088
sg98
F0.0005238344683080147
sg264
F0.03195390256678889
sg265
F0.0005238344683080147
sg385
F0.0005238344683080147
sg386
F0.0005238344683080147
sg266
F0.012572027239392353
sg387
F0.0010476689366160294
sg105
F0.003143006809848088
sg235
F0.001571503404924044
sg269
F0.001571503404924044
sg108
F0.001571503404924044
sg106
F0.0005238344683080147
sS'vehicle'
p440
F0.005762179151388162
sg112
F0.014143530644316397
sS'john'
p441
F0.0005238344683080147
sg113
F0.0020953378732320588
sg114
F0.003143006809848088
sS'paved'
p442
F0.005238344683080147
sg130
F0.003143006809848088
sg394
F0.0010476689366160294
sS'lanes'
p443
F0.011524358302776323
sg117
F0.0010476689366160294
sg118
F0.0005238344683080147
sg119
F0.0020953378732320588
sg302
F0.0041906757464641176
sg191
F0.003666841278156103
sg237
F0.0005238344683080147
sg196
F0.005238344683080147
sg277
F0.00890518596123625
sg123
F0.0041906757464641176
sg398
F0.0005238344683080147
sg124
F0.006809848088004191
sg125
F0.0010476689366160294
sg271
F0.0026191723415400735
sg307
F0.0010476689366160294
sg417
F0.0041906757464641176
sg129
F0.011000523834468309
sg19
F0.006286013619696176
sg280
F0.0005238344683080147
sg282
F0.0005238344683080147
sg38
F0.0005238344683080147
sg283
F0.0005238344683080147
sg284
F0.0005238344683080147
sg132
F0.0010476689366160294
sg286
F0.0010476689366160294
sg353
F0.021477213200628602
sg137
F0.0005238344683080147
sg139
F0.0005238344683080147
sg140
F0.0020953378732320588
sg141
F0.0005238344683080147
sg400
F0.001571503404924044
sS'segways'
p444
F0.00890518596123625
sg143
F0.0005238344683080147
sg288
F0.0010476689366160294
sg401
F0.001571503404924044
sg257
F0.0005238344683080147
sg144
F0.005238344683080147
sg274
F0.012048192771084338
sg402
F0.0005238344683080147
sg290
F0.0005238344683080147
sS'locations'
p445
F0.008381351492928235
sg149
F0.0010476689366160294
sg151
F0.0010476689366160294
sS'pedestrian'
p446
F0.0178103719224725
sg404
F0.005762179151388162
sg153
F0.006809848088004191
sg406
F0.00785751702462022
sg408
F0.005238344683080147
sg157
F0.008381351492928235
sg190
F0.012572027239392353
sS'court'
p447
F0.0041906757464641176
sg296
F0.0041906757464641176
sg298
F0.0020953378732320588
sg163
F0.004714510214772132
sg164
F0.001571503404924044
sg410
F0.005238344683080147
sg299
F0.006286013619696176
sg222
F0.0010476689366160294
sg300
F0.004714510214772132
sg167
F0.001571503404924044
sg378
F0.0005238344683080147
sg412
F0.0026191723415400735
sg170
F0.0005238344683080147
sg171
F0.0005238344683080147
sg173
F0.0010476689366160294
sg254
F0.004714510214772132
sg415
F0.011524358302776323
sg175
F0.0020953378732320588
sg176
F0.0020953378732320588
sg178
F0.0005238344683080147
sg179
F0.0005238344683080147
sg180
F0.001571503404924044
sg138
F0.0005238344683080147
sS'regular'
p448
F0.001571503404924044
sg305
F0.0005238344683080147
sS'user'
p449
F0.004714510214772132
sg185
F0.0005238344683080147
sg295
F0.003143006809848088
sS'america'
p450
F0.006809848088004191
sg188
F0.0005238344683080147
sg103
F0.001571503404924044
sg306
F0.0005238344683080147
sg420
F0.0020953378732320588
sg421
F0.006809848088004191
sg193
F0.0010476689366160294
sg422
F0.0005238344683080147
sg78
F0.0020953378732320588
sg309
F0.0026191723415400735
sg198
F0.001571503404924044
sg261
F0.006286013619696176
sg424
F0.0005238344683080147
sg162
F0.013619696176008382
sg27
F0.0041906757464641176
sg397
F0.00785751702462022
sg426
F0.004714510214772132
sg312
F0.010476689366160294
sg204
F0.0005238344683080147
sg205
F0.003666841278156103
sg427
F0.001571503404924044
sg313
F0.003143006809848088
ssI5
(dp451
g316
F0.0005263157894736842
sg317
F0.0005263157894736842
sg3
F0.002105263157894737
sg4
F0.0036842105263157894
sg274
F0.0005263157894736842
sg5
F0.006842105263157895
sg7
F0.004736842105263158
sg8
F0.0015789473684210526
sg26
F0.0015789473684210526
sg10
F0.0010526315789473684
sg208
F0.0010526315789473684
sg57
F0.003157894736842105
sg43
F0.0005263157894736842
sg328
F0.0005263157894736842
sg210
F0.01
sg103
F0.0005263157894736842
sg430
F0.0010526315789473684
sg75
F0.0010526315789473684
sg18
F0.011052631578947368
sg19
F0.0005263157894736842
sg216
F0.005263157894736842
sg217
F0.002631578947368421
sg21
F0.0010526315789473684
sg333
F0.0005263157894736842
sg22
F0.0005263157894736842
sg168
F0.0015789473684210526
sg23
F0.002105263157894737
sS'cupola'
p452
F0.00631578947368421
sg335
F0.0015789473684210526
sg25
F0.012105263157894737
sg419
F0.008947368421052631
sg338
F0.0005263157894736842
sg339
F0.0005263157894736842
sg340
F0.0015789473684210526
sg341
F0.0010526315789473684
sg221
F0.005263157894736842
sg28
F0.05
sg342
F0.0005263157894736842
sg223
F0.002631578947368421
sg224
F0.0005263157894736842
sg31
F0.0005263157894736842
sg32
F0.0005263157894736842
sg33
F0.002631578947368421
sg272
F0.0010526315789473684
sg34
F0.004736842105263158
sg35
F0.0015789473684210526
sg228
F0.0005263157894736842
sg37
F0.0015789473684210526
sg229
F0.0036842105263157894
sg349
F0.012105263157894737
sg76
F0.0010526315789473684
sg231
F0.002631578947368421
sg39
F0.004736842105263158
sg382
F0.0010526315789473684
sg40
F0.002631578947368421
sg107
F0.00631578947368421
sg42
F0.0015789473684210526
sg352
F0.0005263157894736842
sg236
F0.0015789473684210526
sg135
F0.0036842105263157894
sg238
F0.0005263157894736842
sg355
F0.004736842105263158
sg240
F0.004736842105263158
sg47
F0.008947368421052631
sg49
F0.002631578947368421
sg50
F0.002105263157894737
sg51
F0.004736842105263158
sg357
F0.0015789473684210526
sg52
F0.0010526315789473684
sg55
F0.0015789473684210526
sg244
F0.0005263157894736842
sg13
F0.0005263157894736842
sg360
F0.0010526315789473684
sg441
F0.00631578947368421
sg62
F0.002105263157894737
sg359
F0.0005263157894736842
sg347
F0.002105263157894737
sg65
F0.002105263157894737
sg48
F0.005263157894736842
sg183
F0.004736842105263158
sg247
F0.0005263157894736842
sg30
F0.0015789473684210526
sg20
F0.031578947368421054
sg69
F0.002105263157894737
sg365
F0.0005263157894736842
sg366
F0.0010526315789473684
sg249
F0.006842105263157895
sg251
F0.0005263157894736842
sg252
F0.003157894736842105
sg101
F0.011052631578947368
sg385
F0.0005263157894736842
sg303
F0.0015789473684210526
sg254
F0.0010526315789473684
sg433
F0.02
sg256
F0.0015789473684210526
sg74
F0.008421052631578947
sg257
F0.0015789473684210526
sg255
F0.0005263157894736842
sg437
F0.0015789473684210526
sg155
F0.006842105263157895
sg371
F0.0015789473684210526
sg79
F0.010526315789473684
sg413
F0.0010526315789473684
sg81
F0.00631578947368421
sg372
F0.0005263157894736842
sg397
F0.0010526315789473684
sg83
F0.002631578947368421
sg84
F0.003157894736842105
sg85
F0.002105263157894737
sg86
F0.008421052631578947
sg87
F0.002105263157894737
sg88
F0.0005263157894736842
sg90
F0.07421052631578948
sg379
F0.0005263157894736842
sg268
F0.0005263157894736842
sg263
F0.008421052631578947
sg380
F0.004736842105263158
sg232
F0.002105263157894737
sg94
F0.0005263157894736842
sg9
F0.01
sg54
F0.002105263157894737
sg99
F0.0005263157894736842
sg100
F0.0005263157894736842
sg265
F0.005263157894736842
sg93
F0.0005263157894736842
sg102
F0.00631578947368421
sg386
F0.0015789473684210526
sg266
F0.005789473684210527
sg387
F0.0015789473684210526
sg105
F0.0036842105263157894
sg106
F0.0015789473684210526
sg17
F0.014210526315789474
sg109
F0.003157894736842105
sg110
F0.0005263157894736842
sg112
F0.0005263157894736842
sg391
F0.006842105263157895
sg113
F0.0010526315789473684
sg392
F0.0005263157894736842
sg114
F0.0005263157894736842
sg442
F0.0005263157894736842
sg115
F0.005789473684210527
sg394
F0.0005263157894736842
sg116
F0.0005263157894736842
sg276
F0.0005263157894736842
sg118
F0.006842105263157895
sg327
F0.0005263157894736842
sg237
F0.0015789473684210526
sg195
F0.0005263157894736842
sg27
F0.007368421052631579
sg124
F0.005263157894736842
sg150
F0.0010526315789473684
sg127
F0.007368421052631579
sg307
F0.003157894736842105
sg128
F0.0015789473684210526
sg129
F0.002105263157894737
sg215
F0.002105263157894737
sg280
F0.0010526315789473684
sg281
F0.0005263157894736842
sg38
F0.002631578947368421
sg273
F0.004736842105263158
sg286
F0.017894736842105262
sg134
F0.0005263157894736842
sg66
F0.09842105263157895
sg139
F0.003157894736842105
sg140
F0.004210526315789474
sg253
F0.002105263157894737
sg142
F0.0010526315789473684
sg143
F0.004210526315789474
sg401
F0.0015789473684210526
sg196
F0.0015789473684210526
sg145
F0.029473684210526315
sg146
F0.005263157894736842
sg402
F0.008421052631578947
sg148
F0.00631578947368421
sg291
F0.005789473684210527
sg151
F0.0015789473684210526
sg292
F0.0005263157894736842
sg153
F0.002105263157894737
sg293
F0.0036842105263157894
sg154
F0.0005263157894736842
sg156
F0.0010526315789473684
sg157
F0.0010526315789473684
sg160
F0.0015789473684210526
sg295
F0.002631578947368421
sg296
F0.008421052631578947
sg297
F0.0005263157894736842
sg163
F0.006842105263157895
sg334
F0.0015789473684210526
sS'mills'
p453
F0.01
sg158
F0.0015789473684210526
sg300
F0.0005263157894736842
sg166
F0.003157894736842105
sg167
F0.0005263157894736842
sg301
F0.002105263157894737
sg130
F0.002631578947368421
sg80
F0.0010526315789473684
sg171
F0.013157894736842105
sg172
F0.014736842105263158
sg173
F0.004210526315789474
sg174
F0.002105263157894737
sg175
F0.0005263157894736842
sg126
F0.024210526315789474
sg178
F0.004736842105263158
sg222
F0.0005263157894736842
sg417
F0.0036842105263157894
sg182
F0.004736842105263158
sg184
F0.0005263157894736842
sg185
F0.002631578947368421
sg186
F0.002105263157894737
sg298
F0.0005263157894736842
sg306
F0.0010526315789473684
sg420
F0.0010526315789473684
sg193
F0.0010526315789473684
sg121
F0.0010526315789473684
sg422
F0.005263157894736842
sg308
F0.0005263157894736842
sg309
F0.004736842105263158
sg147
F0.002105263157894737
sg310
F0.0005263157894736842
sg311
F0.0005263157894736842
sg199
F0.014210526315789474
sg258
F0.003157894736842105
sg201
F0.003157894736842105
sg202
F0.0005263157894736842
sg203
F0.009473684210526316
sg205
F0.0010526315789473684
sg427
F0.0010526315789473684
ssI6
(dp454
g315
F0.00425531914893617
sg85
F0.00425531914893617
sg86
F0.00425531914893617
sg350
F0.00425531914893617
sg385
F0.00425531914893617
sg90
F0.08085106382978724
sg316
F0.00425531914893617
sg446
F0.00851063829787234
sg169
F0.00851063829787234
sg377
F0.00425531914893617
sS'counting'
p455
F0.05531914893617021
sg61
F0.029787234042553193
sg250
F0.00425531914893617
sg51
F0.00425531914893617
sg357
F0.029787234042553193
sS'pattern'
p456
F0.05531914893617021
sS'museum'
p457
F0.00425531914893617
sg429
F0.00425531914893617
sg388
F0.03829787234042553
sg158
F0.00851063829787234
sg332
F0.00425531914893617
sg213
F0.03404255319148936
sg18
F0.00425531914893617
sg414
F0.03829787234042553
sg347
F0.00425531914893617
sg403
F0.00425531914893617
sg161
F0.04680851063829787
sg117
F0.05531914893617021
sS'boing'
p458
F0.06808510638297872
sg416
F0.01276595744680851
sg419
F0.00851063829787234
sg412
F0.00851063829787234
sg366
F0.01276595744680851
sg27
F0.00425531914893617
sg305
F0.00851063829787234
sg449
F0.00851063829787234
sg251
F0.01702127659574468
sg28
F0.00425531914893617
sg348
F0.05531914893617021
sg294
F0.03829787234042553
sg277
F0.00425531914893617
sg399
F0.00425531914893617
sg343
F0.00425531914893617
sg257
F0.00851063829787234
sg423
F0.0425531914893617
sg371
F0.00425531914893617
sg448
F0.03404255319148936
sg346
F0.03404255319148936
sg114
F0.00425531914893617
sg312
F0.00425531914893617
sg141
F0.01276595744680851
sg349
F0.00425531914893617
sg382
F0.03829787234042553
ssI7
(dp459
g315
F0.005208333333333333
sg429
F0.005208333333333333
sg5
F0.0026041666666666665
sg6
F0.0026041666666666665
sg7
F0.0026041666666666665
sg2
F0.005208333333333333
sg325
F0.0078125
sg12
F0.0026041666666666665
sg14
F0.0026041666666666665
sg430
F0.013020833333333334
sg17
F0.0026041666666666665
sg212
F0.0026041666666666665
sg18
F0.0026041666666666665
sg214
F0.0026041666666666665
sg19
F0.013020833333333334
sg216
F0.0026041666666666665
sg217
F0.005208333333333333
sg21
F0.0026041666666666665
sg218
F0.005208333333333333
sg261
F0.0078125
sg419
F0.010416666666666666
sg220
F0.010416666666666666
sg339
F0.0026041666666666665
sg29
F0.015625
sg219
F0.0026041666666666665
sg33
F0.010416666666666666
sg343
F0.005208333333333333
sg35
F0.005208333333333333
sS'pewee'
p460
F0.033854166666666664
sg37
F0.018229166666666668
sg229
F0.0026041666666666665
sg348
F0.018229166666666668
sg349
F0.0026041666666666665
sg38
F0.005208333333333333
sg364
F0.0026041666666666665
sg411
F0.0026041666666666665
sg350
F0.0234375
sg395
F0.013020833333333334
sg42
F0.0026041666666666665
sg236
F0.0026041666666666665
sg353
F0.0078125
sg238
F0.020833333333333332
sg10
F0.0078125
sg241
F0.0026041666666666665
sg52
F0.0026041666666666665
sg438
F0.0026041666666666665
sg358
F0.010416666666666666
sg56
F0.010416666666666666
sg13
F0.0026041666666666665
sg45
F0.0026041666666666665
sg183
F0.0078125
sg69
F0.0026041666666666665
sg253
F0.0026041666666666665
sg74
F0.0026041666666666665
sg257
F0.0078125
sg75
F0.0026041666666666665
sg437
F0.0026041666666666665
sg143
F0.033854166666666664
sg78
F0.005208333333333333
sg413
F0.0026041666666666665
sg372
F0.0026041666666666665
sg373
F0.0026041666666666665
sg425
F0.013020833333333334
sg85
F0.0026041666666666665
sg86
F0.0026041666666666665
sg90
F0.07552083333333333
sg91
F0.015625
sg222
F0.010416666666666666
sg381
F0.0026041666666666665
sg96
F0.0026041666666666665
sg61
F0.0026041666666666665
sg387
F0.0026041666666666665
sg457
F0.03125
sg235
F0.0026041666666666665
sg269
F0.0026041666666666665
sg270
F0.005208333333333333
sg441
F0.005208333333333333
sg442
F0.0078125
sg394
F0.0026041666666666665
sg116
F0.0026041666666666665
sg118
F0.005208333333333333
sg302
F0.010416666666666666
sg420
F0.005208333333333333
sg277
F0.0026041666666666665
sg27
F0.0078125
sS'riding'
p461
F0.028645833333333332
sg124
F0.0026041666666666665
sg127
F0.0026041666666666665
sg279
F0.0026041666666666665
sg128
F0.0026041666666666665
sg131
F0.0026041666666666665
sg285
F0.010416666666666666
sg286
F0.0026041666666666665
sg141
F0.0026041666666666665
sg142
F0.026041666666666668
sg370
F0.005208333333333333
sg196
F0.0026041666666666665
sg145
F0.0026041666666666665
sg402
F0.013020833333333334
sg148
F0.0026041666666666665
sg149
F0.005208333333333333
sg150
F0.0026041666666666665
sg129
F0.005208333333333333
sg407
F0.0026041666666666665
sg409
F0.013020833333333334
sg159
F0.0026041666666666665
sg190
F0.0078125
sg447
F0.005208333333333333
sg296
F0.010416666666666666
sg164
F0.0026041666666666665
sg410
F0.0026041666666666665
sg165
F0.005208333333333333
sg300
F0.020833333333333332
sg301
F0.015625
sg169
F0.005208333333333333
sg415
F0.0026041666666666665
sg176
F0.005208333333333333
sg202
F0.0026041666666666665
sg178
F0.0026041666666666665
sg120
F0.0026041666666666665
sg416
F0.0026041666666666665
sg303
F0.0026041666666666665
sg417
F0.0026041666666666665
sg79
F0.0026041666666666665
sg260
F0.0026041666666666665
sg184
F0.0026041666666666665
sg185
F0.0026041666666666665
sg186
F0.0078125
sg188
F0.0026041666666666665
sg191
F0.0078125
sS'surfing'
p462
F0.036458333333333336
sg192
F0.005208333333333333
sg193
F0.005208333333333333
sg322
F0.0078125
sg309
F0.005208333333333333
sg310
F0.005208333333333333
sg426
F0.0026041666666666665
sg76
F0.0026041666666666665
sg204
F0.005208333333333333
sg205
F0.0026041666666666665
ss.