(dp0
I1
(dp1
S'iran'
p2
F0.032467532467532464
sS'union'
p3
F0.09090909090909091
sS'union_#-1'
p4
F0.05194805194805195
sS'going'
p5
F0.05844155844155844
sS'strike'
p6
F0.6818181818181818
sS'security'
p7
F0.032467532467532464
sS'local'
p8
F0.05194805194805195
ss.