(dp0
I1
(dp1
S'things'
p2
F0.0028546959748786756
sS'help'
p3
F0.00028546959748786756
sS'chinese'
p4
F0.0014273479874393378
sS'show'
p5
F0.01969740222666286
sS'increasingly'
p6
F0.0017128175849272054
sS'money'
p7
F0.003711104767342278
sS'hands'
p8
F0.0014273479874393378
sS'month'
p9
F0.0022837567799029405
sS'produced'
p10
F0.0014273479874393378
sS'held'
p11
F0.00028546959748786756
sS'books'
p12
F0.0022837567799029405
sS'talk'
p13
F0.003140165572366543
sS'yes'
p14
F0.0022837567799029405
sS'sidebar'
p15
F0.00028546959748786756
sS'find'
p16
F0.0008564087924636027
sS'decade'
p17
F0.0022837567799029405
sS'web'
p18
F0.0017128175849272054
sS'certainly'
p19
F0.0008564087924636027
sS'group'
p20
F0.0011418783899514702
sS'family'
p21
F0.004282043962318013
sS'personal'
p22
F0.0017128175849272054
sS'situations'
p23
F0.0017128175849272054
sS'supply'
p24
F0.0008564087924636027
sS'father'
p25
F0.007422209534684556
sS'young'
p26
F0.0011418783899514702
sS'including'
p27
F0.0017128175849272054
sS'actually'
p28
F0.004852983157293748
sS'finally'
p29
F0.0019982871824150727
sS'according'
p30
F0.0005709391949757351
sS'black'
p31
F0.003996574364830145
sS'safety'
p32
F0.0008564087924636027
sS'watching'
p33
F0.011704253497002569
sS'cool'
p34
F0.002569226377390808
sS'local'
p35
F0.00028546959748786756
sS'hope'
p36
F0.0008564087924636027
sS'real'
p37
F0.0011418783899514702
sS'evening'
p38
F0.003140165572366543
sS'officials'
p39
F0.0034256351698544107
sS'government'
p40
F0.0034256351698544107
sS'food'
p41
F0.00028546959748786756
sS'big'
p42
F0.0022837567799029405
sS'stop'
p43
F0.0011418783899514702
sS'television'
p44
F0.0790750785041393
sS'nation'
p45
F0.00028546959748786756
sS'early'
p46
F0.0019982871824150727
sS'game'
p47
F0.0028546959748786756
sS'pictures'
p48
F0.0014273479874393378
sS'owned'
p49
F0.0034256351698544107
sS'words'
p50
F0.0005709391949757351
sS'half'
p51
F0.002569226377390808
sS'front'
p52
F0.004282043962318013
sS'taking'
p53
F0.004852983157293748
sS'study'
p54
F0.00028546959748786756
sS'projects'
p55
F0.0005709391949757351
sS'furniture'
p56
F0.00028546959748786756
sS'war'
p57
F0.003140165572366543
sS'cable'
p58
F0.008278618327148159
sS'michael'
p59
F0.0028546959748786756
sS'morning'
p60
F0.005423922352269483
sS'large'
p61
F0.0022837567799029405
sS'processed'
p62
F0.0008564087924636027
sS'activity'
p63
F0.0005709391949757351
sS'popular'
p64
F0.0017128175849272054
sS'found'
p65
F0.002569226377390808
sS'told'
p66
F0.0022837567799029405
sS'meal'
p67
F0.0005709391949757351
sS'husband'
p68
F0.00028546959748786756
sS'heavy'
p69
F0.0008564087924636027
sS'small'
p70
F0.0008564087924636027
sS'set'
p71
F0.0017128175849272054
sS'force'
p72
F0.0022837567799029405
sS'deal'
p73
F0.0017128175849272054
sS'voiceover'
p74
F0.0017128175849272054
sS'house'
p75
F0.0028546959748786756
sS'national'
p76
F0.003140165572366543
sS'hard'
p77
F0.003996574364830145
sS'sex'
p78
F0.0008564087924636027
sS'past'
p79
F0.0014273479874393378
sS'culture'
p80
F0.0017128175849272054
sS'likely'
p81
F0.0017128175849272054
sS'cost'
p82
F0.0028546959748786756
sS'video'
p83
F0.0028546959748786756
sS'images'
p84
F0.003711104767342278
sS'close'
p85
F0.0034256351698544107
sS'event'
p86
F0.003140165572366543
sS'blue'
p87
F0.0011418783899514702
sS'leave'
p88
F0.0017128175849272054
sS'shown'
p89
F0.0028546959748786756
sS'appear'
p90
F0.0008564087924636027
sS'entertainment'
p91
F0.004567513559805881
sS'god'
p92
F0.00028546959748786756
sS'robert'
p93
F0.0028546959748786756
sS'cameras'
p94
F0.0034256351698544107
sS'children'
p95
F0.008278618327148159
sS'health'
p96
F0.00028546959748786756
sS'market'
p97
F0.0017128175849272054
sS'internet'
p98
F0.002569226377390808
sS'progress'
p99
F0.0008564087924636027
sS'learned'
p100
F0.003140165572366543
sS'public'
p101
F0.009705966314587497
sS'red'
p102
F0.0019982871824150727
sS'shows'
p103
F0.006280331144733086
sS'full'
p104
F0.0008564087924636027
sS'run'
p105
F0.003996574364830145
sS'screen'
p106
F0.0017128175849272054
sS'million'
p107
F0.004282043962318013
sS'free'
p108
F0.00028546959748786756
sS'parents'
p109
F0.005138452754781616
sS'hours'
p110
F0.009420496717099628
sS'met'
p111
F0.0022837567799029405
sS'host'
p112
F0.0034256351698544107
sS'joe'
p113
F0.0017128175849272054
sS'served'
p114
F0.00028546959748786756
sS'ask'
p115
F0.0034256351698544107
sS'article'
p116
F0.0008564087924636027
sS'reporters'
p117
F0.002569226377390808
sS'wanted'
p118
F0.0011418783899514702
sS'kitchen'
p119
F0.0005709391949757351
sS'kids'
p120
F0.002569226377390808
sS'stations'
p121
F0.004852983157293748
sS'country'
p122
F0.0017128175849272054
sS'newspapers'
p123
F0.007422209534684556
sS'months'
p124
F0.00028546959748786756
sS'days'
p125
F0.0011418783899514702
sS'reports'
p126
F0.003140165572366543
sS'david'
p127
F0.003996574364830145
sS'drama'
p128
F0.0034256351698544107
sS'thing'
p129
F0.0011418783899514702
sS'american'
p130
F0.0059948615472452185
sS'produce'
p131
F0.00028546959748786756
sS'games'
p132
F0.005709391949757351
sS'advertising'
p133
F0.0008564087924636027
sS'social'
p134
F0.003996574364830145
sS'action'
p135
F0.004852983157293748
sS'makes'
p136
F0.0014273479874393378
sS'think'
p137
F0.006280331144733086
sS'comes'
p138
F0.0005709391949757351
sS'king'
p139
F0.007136739937196689
sS'seeing'
p140
F0.0011418783899514702
sS'major'
p141
F0.0028546959748786756
sS'station'
p142
F0.003996574364830145
sS'love'
p143
F0.0028546959748786756
sS'colorado'
p144
F0.0005709391949757351
sS'campaign'
p145
F0.0005709391949757351
sS'point'
p146
F0.003140165572366543
sS'appeared'
p147
F0.003140165572366543
sS'xyz'
p148
F0.12018270054239223
sS'sign'
p149
F0.00028546959748786756
sS'number'
p150
F0.0019982871824150727
sS'community'
p151
F0.0011418783899514702
sS'system'
p152
F0.0008564087924636027
sS'channels'
p153
F0.003996574364830145
sS'put'
p154
F0.0005709391949757351
sS'magazines'
p155
F0.0019982871824150727
sS'learning'
p156
F0.0017128175849272054
sS'news'
p157
F0.009420496717099628
sS'table'
p158
F0.00028546959748786756
sS'total'
p159
F0.003140165572366543
sS'open'
p160
F0.00028546959748786756
sS'teach'
p161
F0.003140165572366543
sS'expensive'
p162
F0.002569226377390808
sS'york'
p163
F0.0034256351698544107
sS'city'
p164
F0.003996574364830145
sS'story'
p165
F0.0017128175849272054
sS'law'
p166
F0.003711104767342278
sS'computer'
p167
F0.003711104767342278
sS'working'
p168
F0.00028546959748786756
sS'spending'
p169
F0.003140165572366543
sS'night'
p170
F0.006280331144733086
sS'bush'
p171
F0.0017128175849272054
sS'fast'
p172
F0.0005709391949757351
sS'start'
p173
F0.0022837567799029405
sS'live'
p174
F0.00799314872966029
sS'going'
p175
F0.012560662289466172
sS'call'
p176
F0.0008564087924636027
sS'lot'
p177
F0.0022837567799029405
sS'series'
p178
F0.00799314872966029
sS'qualify'
p179
F0.0008564087924636027
sS'music'
p180
F0.0028546959748786756
sS'white'
p181
F0.0028546959748786756
sS'recent'
p182
F0.003140165572366543
sS'markets'
p183
F0.00028546959748786756
sS'tell'
p184
F0.0005709391949757351
sS'today'
p185
F0.00799314872966029
sS'sort'
p186
F0.003140165572366543
sS'ago'
p187
F0.0019982871824150727
sS'head'
p188
F0.00028546959748786756
sS'selling'
p189
F0.0011418783899514702
sS'north'
p190
F0.0008564087924636027
sS'stars'
p191
F0.0034256351698544107
sS'turned'
p192
F0.004852983157293748
sS'gas'
p193
F0.0017128175849272054
sS'took'
p194
F0.0034256351698544107
sS'washington'
p195
F0.0019982871824150727
sS'broadcast'
p196
F0.006851270339708821
sS'environmental'
p197
F0.0005709391949757351
sS'part'
p198
F0.0019982871824150727
sS'child'
p199
F0.0005709391949757351
sS'prices'
p200
F0.0005709391949757351
sS'general'
p201
F0.003140165572366543
sS'present'
p202
F0.0019982871824150727
sS'women'
p203
F0.0019982871824150727
sS'case'
p204
F0.00028546959748786756
sS'homes'
p205
F0.0008564087924636027
sS'kind'
p206
F0.0022837567799029405
sS'include'
p207
F0.0005709391949757351
sS'decided'
p208
F0.0019982871824150727
sS'look'
p209
F0.002569226377390808
sS'hour'
p210
F0.003140165572366543
sS'science'
p211
F0.002569226377390808
sS'bill'
p212
F0.0028546959748786756
sS'cash'
p213
F0.0019982871824150727
sS'movie'
p214
F0.0028546959748786756
sS'movies'
p215
F0.0077076791321724234
sS'states'
p216
F0.0005709391949757351
sS'defense'
p217
F0.003140165572366543
sS'report'
p218
F0.0022837567799029405
sS'making'
p219
F0.002569226377390808
sS'providing'
p220
F0.00028546959748786756
sS'vice'
p221
F0.0022837567799029405
sS'called'
p222
F0.004852983157293748
sS'radio'
p223
F0.010847844704538966
sS'history'
p224
F0.0022837567799029405
sS'program'
p225
F0.003711104767342278
sS'president'
p226
F0.005138452754781616
sS'limbaugh'
p227
F0.0019982871824150727
sS'give'
p228
F0.0005709391949757351
sS'sense'
p229
F0.0008564087924636027
sS'share'
p230
F0.00028546959748786756
sS'evidence'
p231
F0.0014273479874393378
sS'high'
p232
F0.0017128175849272054
sS'talking'
p233
F0.005138452754781616
sS'woman'
p234
F0.0005709391949757351
sS'room'
p235
F0.0019982871824150727
sS'numbers'
p236
F0.0017128175849272054
sS'want'
p237
F0.0017128175849272054
sS'seen'
p238
F0.006565800742220953
sS'need'
p239
F0.003711104767342278
sS'politics'
p240
F0.0017128175849272054
sS'turn'
p241
F0.003996574364830145
sS'saw'
p242
F0.004852983157293748
sS'film'
p243
F0.003996574364830145
sS'sat'
p244
F0.0005709391949757351
sS'information'
p245
F0.005138452754781616
sS'watched'
p246
F0.007136739937196689
sS'end'
p247
F0.0005709391949757351
sS'author'
p248
F0.0011418783899514702
sS'media'
p249
F0.0077076791321724234
sS'began'
p250
F0.002569226377390808
sS'means'
p251
F0.003711104767342278
sS'percent'
p252
F0.0005709391949757351
sS'reality'
p253
F0.006565800742220953
sS'read'
p254
F0.0034256351698544107
sS'book'
p255
F0.003996574364830145
sS'interview'
p256
F0.0019982871824150727
sS'party'
p257
F0.0019982871824150727
sS'writer'
p258
F0.0017128175849272054
sS'channel'
p259
F0.002569226377390808
sS'week'
p260
F0.004282043962318013
sS'independent'
p261
F0.0028546959748786756
sS'play'
p262
F0.0019982871824150727
sS'sure'
p263
F0.0014273479874393378
sS'watch'
p264
F0.01284613188695404
sS'paid'
p265
F0.0014273479874393378
sS'prepared'
p266
F0.0005709391949757351
sS'tonight'
p267
F0.003711104767342278
sS'important'
p268
F0.00028546959748786756
sS'studies'
p269
F0.00028546959748786756
sS'coverage'
p270
F0.0008564087924636027
sS'coming'
p271
F0.0034256351698544107
sS'court'
p272
F0.002569226377390808
sS'america'
p273
F0.006851270339708821
sS'weekend'
p274
F0.00028546959748786756
sS'network'
p275
F0.008849557522123894
sS'billion'
p276
F0.0022837567799029405
sS'break'
p277
F0.005423922352269483
sS'longer'
p278
F0.00028546959748786756
sS'programs'
p279
F0.00799314872966029
sS'maybe'
p280
F0.0011418783899514702
sS'later'
p281
F0.0028546959748786756
sS'try'
p282
F0.0028546959748786756
sS'looked'
p283
F0.0034256351698544107
sS'cooked'
p284
F0.00028546959748786756
sS'broadcasting'
p285
F0.003711104767342278
sS'place'
p286
F0.0028546959748786756
sS'writing'
p287
F0.0022837567799029405
sS'mother'
p288
F0.005138452754781616
sS'father_#-1'
p289
F0.003140165572366543
sS'spend'
p290
F0.0014273479874393378
sS'fact'
p291
F0.00028546959748786756
sS'left'
p292
F0.0019982871824150727
ssI2
(dp293
S'summer'
p294
F0.0042417815482502655
sS'serving'
p295
F0.0017674089784376105
sS'truck'
p296
F0.003181336161187699
sS'consider'
p297
F0.0003534817956875221
sS'chain'
p298
F0.002474372569812655
sg5
F0.0010604453870625664
sg6
F0.0007069635913750442
sg7
F0.003888299752562743
sS'move'
p299
F0.003534817956875221
sg9
F0.0042417815482502655
sg10
F0.002827854365500177
sS'bring'
p300
F0.003181336161187699
sS'paper'
p301
F0.0003534817956875221
sg27
F0.006009190526687876
sg114
F0.006009190526687876
sg14
F0.0017674089784376105
sg15
F0.002827854365500177
sg17
F0.0017674089784376105
sg3
F0.007423117709437964
sg18
F0.0042417815482502655
sS'toolong'
p302
F0.0017674089784376105
sS'based'
p303
F0.002474372569812655
sg4
F0.002827854365500177
sS'thinking'
p304
F0.0003534817956875221
sg22
F0.0010604453870625664
sg23
F0.0010604453870625664
sg252
F0.005655708731000354
sg26
F0.0007069635913750442
sg28
F0.0017674089784376105
sS'source'
p305
F0.0014139271827500884
sg29
F0.002474372569812655
sg30
F0.0007069635913750442
sS'pay'
p306
F0.00494874513962531
sg207
F0.0014139271827500884
sS'easier'
p307
F0.004595263343937788
sg263
F0.0007069635913750442
sS'dad'
p308
F0.0017674089784376105
sS'activities'
p309
F0.0003534817956875221
sg234
F0.006362672322375398
sS'hit'
p310
F0.0021208907741251328
sg40
F0.0003534817956875221
sg41
F0.1297278190173206
sg195
F0.0014139271827500884
sg220
F0.002827854365500177
sg43
F0.0014139271827500884
sg45
F0.0017674089784376105
sg277
F0.0010604453870625664
sg168
F0.003534817956875221
sS'nearly'
p311
F0.0003534817956875221
sg8
F0.0010604453870625664
sS'cook'
p312
F0.005302226935312832
sS'products'
p313
F0.0017674089784376105
sS'presidential'
p314
F0.0003534817956875221
sS'areas'
p315
F0.0021208907741251328
sS'county'
p316
F0.0042417815482502655
sS'meat'
p317
F0.002474372569812655
sg11
F0.0014139271827500884
sS'nutrition'
p318
F0.003888299752562743
sg59
F0.0021208907741251328
sg88
F0.0010604453870625664
sg62
F0.0014139271827500884
sg63
F0.0003534817956875221
sg70
F0.005302226935312832
sg65
F0.0042417815482502655
sS'security'
p319
F0.006009190526687876
sg66
F0.002474372569812655
sg67
F0.00494874513962531
sS'clothes'
p320
F0.003888299752562743
sg69
F0.003888299752562743
sS'population'
p321
F0.002474372569812655
sg71
F0.0010604453870625664
sg72
F0.0010604453870625664
sS'weight'
p322
F0.0042417815482502655
sg75
F0.003534817956875221
sS'energy'
p323
F0.00671615411806292
sS'pantry'
p324
F0.005302226935312832
sg20
F0.002474372569812655
sg79
F0.003888299752562743
sg80
F0.0003534817956875221
sg81
F0.0007069635913750442
sg208
F0.0014139271827500884
sg85
F0.0014139271827500884
sS'agriculture'
p325
F0.0042417815482502655
sS'bacteria'
p326
F0.0021208907741251328
sg241
F0.0010604453870625664
sg87
F0.0017674089784376105
sg89
F0.0010604453870625664
sg149
F0.0017674089784376105
sS'recently'
p327
F0.0021208907741251328
sg90
F0.0007069635913750442
sS'factors'
p328
F0.003888299752562743
sS'lots'
p329
F0.0017674089784376105
sg214
F0.0014139271827500884
sg93
F0.0014139271827500884
sS'ice'
p330
F0.0021208907741251328
sS'access'
p331
F0.006362672322375398
sS'critical'
p332
F0.0010604453870625664
sg96
F0.010957935666313185
sS'issues'
p333
F0.0007069635913750442
sg98
F0.0007069635913750442
sg100
F0.0017674089784376105
sg101
F0.0003534817956875221
sg102
F0.0010604453870625664
sg103
F0.0010604453870625664
sg104
F0.0021208907741251328
sS'eating'
p334
F0.012725344644750796
sg106
F0.0003534817956875221
sg107
F0.003534817956875221
sg108
F0.005655708731000354
sg110
F0.0003534817956875221
sg179
F0.003181336161187699
sg113
F0.0021208907741251328
sS'groups'
p335
F0.003888299752562743
sg219
F0.003181336161187699
sg154
F0.0021208907741251328
sg116
F0.0007069635913750442
sg117
F0.0003534817956875221
sS'includes'
p336
F0.002827854365500177
sS'change'
p337
F0.002827854365500177
sS'care'
p338
F0.004595263343937788
sS'water'
p339
F0.013078826440438318
sS'climate'
p340
F0.003181336161187699
sS'ate'
p341
F0.003888299752562743
sS'benefits'
p342
F0.003534817956875221
sS'service'
p343
F0.008130081300813009
sS'restaurant'
p344
F0.006009190526687876
sg122
F0.0014139271827500884
sg123
F0.0003534817956875221
sg124
F0.0014139271827500884
sS'favorite'
p345
F0.0010604453870625664
sg125
F0.0042417815482502655
sS'drug'
p346
F0.009190526687875575
sg127
F0.002827854365500177
sg129
F0.0007069635913750442
sg130
F0.0017674089784376105
sS'person'
p347
F0.005655708731000354
sg286
F0.0014139271827500884
sS'italian'
p348
F0.0003534817956875221
sS'asked'
p349
F0.002474372569812655
sg138
F0.003888299752562743
sg200
F0.00494874513962531
sg143
F0.003181336161187699
sg21
F0.00671615411806292
sg24
F0.007069635913750442
sS'color'
p350
F0.0007069635913750442
sg148
F0.11417462000706964
sg32
F0.002474372569812655
sS'brought'
p351
F0.0007069635913750442
sS'production'
p352
F0.005302226935312832
sS'americans'
p353
F0.0017674089784376105
sS'soul'
p354
F0.002474372569812655
sg158
F0.0010604453870625664
sS'cups'
p355
F0.0042417815482502655
sg160
F0.0007069635913750442
sg162
F0.0003534817956875221
sg164
F0.0003534817956875221
sg165
F0.003534817956875221
sg118
F0.0007069635913750442
sg39
F0.0003534817956875221
sS'quality'
p356
F0.003181336161187699
sg152
F0.003534817956875221
sg172
F0.006362672322375398
sg173
F0.0014139271827500884
sS'beer'
p357
F0.002474372569812655
sS'camera'
p358
F0.012371862849063274
sg176
F0.0042417815482502655
sg177
F0.004595263343937788
sg178
F0.0003534817956875221
sg180
F0.0010604453870625664
sg181
F0.003181336161187699
sS'john'
p359
F0.00494874513962531
sg184
F0.0003534817956875221
sg185
F0.0003534817956875221
sg187
F0.002474372569812655
sg188
F0.002474372569812655
sS'buy'
p360
F0.003534817956875221
sg190
F0.0007069635913750442
sS'form'
p361
F0.0042417815482502655
sg279
F0.0021208907741251328
sg175
F0.003181336161187699
sS'company'
p362
F0.0007069635913750442
sg193
F0.0021208907741251328
sg194
F0.002474372569812655
sg119
F0.0007069635913750442
sg197
F0.003888299752562743
sg198
F0.00671615411806292
sS'investigation'
p363
F0.0021208907741251328
sg199
F0.0003534817956875221
sS'baby'
p364
F0.0017674089784376105
sg78
F0.002827854365500177
sS'eat'
p365
F0.018027571580063628
sg278
F0.002827854365500177
sg204
F0.0007069635913750442
sg206
F0.0021208907741251328
sg235
F0.0010604453870625664
sS'places'
p366
F0.005655708731000354
sg2
F0.0010604453870625664
sg211
F0.0007069635913750442
sg212
F0.0003534817956875221
sg213
F0.0014139271827500884
sg217
F0.0003534817956875221
sS'aid'
p367
F0.004595263343937788
sS'fried'
p368
F0.0017674089784376105
sg54
F0.0021208907741251328
sg224
F0.0007069635913750442
sS'control'
p369
F0.0003534817956875221
sg225
F0.003888299752562743
sg237
F0.006362672322375398
sS'figure'
p370
F0.002827854365500177
sg228
F0.0007069635913750442
sS'taste'
p371
F0.002474372569812655
sg229
F0.0010604453870625664
sg192
F0.0003534817956875221
sS'street'
p372
F0.0007069635913750442
sg231
F0.0007069635913750442
sg232
F0.010604453870625663
sS'foods'
p373
F0.003888299752562743
sg189
F0.0007069635913750442
sg236
F0.0017674089784376105
sg126
F0.0007069635913750442
sS'home'
p374
F0.010250972074938141
sg239
F0.008130081300813009
sg246
F0.0014139271827500884
sS'times'
p375
F0.002474372569812655
sS'clothing'
p376
F0.003181336161187699
sS'species'
p377
F0.0042417815482502655
sg244
F0.002474372569812655
sS'grown'
p378
F0.0003534817956875221
sg245
F0.003534817956875221
sS'needs'
p379
F0.0017674089784376105
sS'united'
p380
F0.0003534817956875221
sg247
F0.003181336161187699
sg248
F0.00494874513962531
sg249
F0.0003534817956875221
sg250
F0.002827854365500177
sg33
F0.0003534817956875221
sS'administration'
p381
F0.007423117709437964
sS'rules'
p382
F0.002827854365500177
sS'sick'
p383
F0.00494874513962531
sg256
F0.0021208907741251328
sS'plates'
p384
F0.003534817956875221
sS'higher'
p385
F0.0003534817956875221
sg260
F0.00494874513962531
sg74
F0.002474372569812655
sg262
F0.003181336161187699
sS'oil'
p386
F0.0003534817956875221
sS'drink'
p387
F0.003888299752562743
sS'effect'
p388
F0.0003534817956875221
sg265
F0.003181336161187699
sS'hand'
p389
F0.0007069635913750442
sg226
F0.0010604453870625664
sS'friends'
p390
F0.0042417815482502655
sS'police'
p391
F0.0003534817956875221
sg182
F0.002474372569812655
sg276
F0.0021208907741251328
sS'safe'
p392
F0.0014139271827500884
sS'center'
p393
F0.003534817956875221
sS'boys'
p394
F0.0042417815482502655
sg281
F0.0021208907741251328
sS'spent'
p395
F0.003888299752562743
sg137
F0.004595263343937788
sS'thought'
p396
F0.005655708731000354
sg284
F0.006362672322375398
sg266
F0.0042417815482502655
sg203
F0.0014139271827500884
sg288
F0.0014139271827500884
sS'fresh'
p397
F0.00671615411806292
sg290
F0.002474372569812655
sg13
F0.0007069635913750442
sg292
F0.0021208907741251328
ssI3
(dp398
g2
F0.009900990099009901
sg295
F0.003808073115003808
sg296
F0.00456968773800457
sg297
F0.0007616146230007616
sg5
F0.0030464584920030465
sg6
F0.0007616146230007616
sg51
F0.00913937547600914
sg9
F0.0007616146230007616
sg10
F0.0007616146230007616
sg300
F0.00456968773800457
sg301
F0.0015232292460015233
sg27
F0.003808073115003808
sg15
F0.002284843869002285
sg95
F0.008377760853008377
sg3
F0.005331302361005331
sg18
F0.0015232292460015233
sg19
F0.0015232292460015233
sS'trying'
p399
F0.014470677837014471
sg20
F0.006854531607006854
sg21
F0.002284843869002285
sg22
F0.002284843869002285
sg23
F0.0015232292460015233
sg258
F0.0030464584920030465
sg26
F0.008377760853008377
sg171
F0.013709063214013708
sg175
F0.0007616146230007616
sg314
F0.007616146230007616
sg203
F0.015993907083015995
sg35
F0.00913937547600914
sg36
F0.0030464584920030465
sg308
F0.0030464584920030465
sg299
F0.0030464584920030465
sg310
F0.010662604722010662
sg33
F0.0015232292460015233
sS'press'
p400
F0.008377760853008377
sg42
F0.0030464584920030465
sg220
F0.0015232292460015233
sg44
F0.030464584920030464
sg45
F0.006854531607006854
sg46
F0.00456968773800457
sg47
F0.005331302361005331
sg311
F0.008377760853008377
sg8
F0.002284843869002285
sg52
F0.008377760853008377
sS'bank'
p401
F0.003808073115003808
sg56
F0.00456968773800457
sg58
F0.0030464584920030465
sg11
F0.00456968773800457
sg318
F0.0007616146230007616
sg30
F0.00913937547600914
sS'companies'
p402
F0.005331302361005331
sg88
F0.0030464584920030465
sg170
F0.0015232292460015233
sg64
F0.005331302361005331
sg223
F0.017517136329017517
sS'works'
p403
F0.00913937547600914
sg68
F0.008377760853008377
sg320
F0.0007616146230007616
sg71
F0.0007616146230007616
sg322
F0.0030464584920030465
sg75
F0.006854531607006854
sg76
F0.006854531607006854
sg391
F0.013709063214013708
sg80
F0.00456968773800457
sg81
F0.0030464584920030465
sg82
F0.0007616146230007616
sg85
F0.002284843869002285
sg86
F0.0015232292460015233
sg282
F0.003808073115003808
sg327
F0.003808073115003808
sg90
F0.0030464584920030465
sS'farmers'
p404
F0.0007616146230007616
sg214
F0.002284843869002285
sg93
F0.006092916984006093
sg94
F0.0007616146230007616
sg330
F0.003808073115003808
sg331
F0.003808073115003808
sS'fans'
p405
F0.007616146230007616
sg332
F0.006092916984006093
sg32
F0.0015232292460015233
sg98
F0.0007616146230007616
sg100
F0.0015232292460015233
sg103
F0.0007616146230007616
sg302
F0.002284843869002285
sg334
F0.0030464584920030465
sg106
F0.006092916984006093
sg107
F0.00456968773800457
sg110
F0.0015232292460015233
sg111
F0.0015232292460015233
sg163
F0.005331302361005331
sg335
F0.005331302361005331
sg221
F0.003808073115003808
sg154
F0.0007616146230007616
sg303
F0.002284843869002285
sg117
F0.0015232292460015233
sg336
F0.002284843869002285
sg337
F0.0015232292460015233
sg119
F0.010662604722010662
sg340
F0.0007616146230007616
sg120
F0.003808073115003808
sg342
F0.0007616146230007616
sg122
F0.007616146230007616
sg54
F0.003808073115003808
sg124
F0.0007616146230007616
sg345
F0.005331302361005331
sg125
F0.0007616146230007616
sg126
F0.0007616146230007616
sg375
F0.005331302361005331
sg129
F0.0015232292460015233
sg130
F0.005331302361005331
sg246
F0.0030464584920030465
sg133
F0.006854531607006854
sg134
F0.0007616146230007616
sg224
F0.0030464584920030465
sg269
F0.013709063214013708
sg349
F0.00456968773800457
sg138
F0.002284843869002285
sg140
F0.0007616146230007616
sg141
F0.002284843869002285
sS'industrial'
p406
F0.0015232292460015233
sg144
F0.00456968773800457
sg145
F0.008377760853008377
sg148
F0.12033511043412033
sg195
F0.0015232292460015233
sg150
F0.0030464584920030465
sg151
F0.002284843869002285
sg153
F0.0007616146230007616
sg155
F0.0030464584920030465
sg396
F0.0007616146230007616
sg156
F0.003808073115003808
sg157
F0.002284843869002285
sg159
F0.0007616146230007616
sg160
F0.0007616146230007616
sg97
F0.0015232292460015233
sg118
F0.002284843869002285
sg167
F0.0030464584920030465
sg168
F0.00456968773800457
sg169
F0.0030464584920030465
sg152
F0.0007616146230007616
sg172
F0.0007616146230007616
sg352
F0.0007616146230007616
sg176
F0.002284843869002285
sg178
F0.0007616146230007616
sg180
F0.00456968773800457
sg359
F0.0015232292460015233
sg183
F0.002284843869002285
sg57
F0.0015232292460015233
sg186
F0.0007616146230007616
sS'building'
p407
F0.008377760853008377
sg188
F0.003808073115003808
sg360
F0.005331302361005331
sg190
F0.005331302361005331
sg192
F0.007616146230007616
sg362
F0.016755521706016754
sg194
F0.0015232292460015233
sg198
F0.0015232292460015233
sg363
F0.003808073115003808
sg199
F0.0007616146230007616
sg149
F0.00456968773800457
sg278
F0.002284843869002285
sg205
F0.006092916984006093
sg206
F0.0007616146230007616
sg208
F0.0007616146230007616
sg209
F0.003808073115003808
sg366
F0.0007616146230007616
sg142
F0.00456968773800457
sg212
F0.0007616146230007616
sg213
F0.0007616146230007616
sg12
F0.0030464584920030465
sS'growing'
p408
F0.0007616146230007616
sg367
F0.0030464584920030465
sg368
F0.0015232292460015233
sg222
F0.0007616146230007616
sg187
F0.0007616146230007616
sg369
F0.00456968773800457
sg37
F0.009900990099009901
sg226
F0.0015232292460015233
sg228
F0.0007616146230007616
sg371
F0.003808073115003808
sg229
F0.0007616146230007616
sg230
F0.007616146230007616
sg372
F0.002284843869002285
sg231
F0.00456968773800457
sg216
F0.0007616146230007616
sg233
F0.0030464584920030465
sg234
F0.003808073115003808
sg236
F0.0007616146230007616
sg237
F0.0015232292460015233
sg238
F0.006854531607006854
sg312
F0.002284843869002285
sg240
F0.005331302361005331
sg376
F0.0007616146230007616
sg377
F0.0007616146230007616
sg243
F0.0007616146230007616
sg244
F0.003808073115003808
sg245
F0.0007616146230007616
sg379
F0.002284843869002285
sg247
F0.003808073115003808
sS'dishes'
p409
F0.009900990099009901
sg249
F0.006854531607006854
sg254
F0.0007616146230007616
sg218
F0.002284843869002285
sg255
F0.006092916984006093
sg257
F0.0007616146230007616
sg55
F0.00456968773800457
sg385
F0.002284843869002285
sg261
F0.003808073115003808
sg267
F0.0007616146230007616
sg263
F0.00456968773800457
sg389
F0.00456968773800457
sg268
F0.003808073115003808
sg270
F0.008377760853008377
sg272
F0.0015232292460015233
sg273
F0.0030464584920030465
sg182
F0.0007616146230007616
sg276
F0.0015232292460015233
sg393
F0.008377760853008377
sg235
F0.014470677837014471
sg382
F0.002284843869002285
sg280
F0.002284843869002285
sg227
F0.006854531607006854
sS'hungry'
p410
F0.0007616146230007616
sg137
F0.0007616146230007616
sg283
F0.0015232292460015233
sg347
F0.0007616146230007616
sg285
F0.0007616146230007616
sg266
F0.0007616146230007616
sg288
F0.0007616146230007616
sg289
F0.0007616146230007616
sg291
F0.0015232292460015233
sg292
F0.0015232292460015233
ssI4
(dp411
g295
F0.0010378827192527244
sg297
F0.005189413596263622
sg298
F0.006746237675142709
sg5
F0.005708354955889984
sg6
F0.0036325895173845357
sg7
F0.0005189413596263622
sg8
F0.0010378827192527244
sg9
F0.0010378827192527244
sg200
F0.0020757654385054488
sg301
F0.005189413596263622
sg27
F0.0005189413596263622
sg16
F0.00934094447327452
sg333
F0.008822003113648157
sg19
F0.0041515308770108976
sg303
F0.0031136481577581734
sg4
F0.0010378827192527244
sg304
F0.006227296315516347
sg313
F0.006746237675142709
sg258
F0.0005189413596263622
sS'stamps'
p412
F0.007265179034769071
sg287
F0.0015568240788790867
sg350
F0.00467047223663726
sg171
F0.0005189413596263622
sg175
F0.0015568240788790867
sg31
F0.0010378827192527244
sg202
F0.0020757654385054488
sg34
F0.0010378827192527244
sg35
F0.012454592631032694
sg36
F0.0036325895173845357
sg308
F0.0015568240788790867
sg309
F0.005708354955889984
sg38
F0.002594706798131811
sg372
F0.0041515308770108976
sg40
F0.0031136481577581734
sg41
F0.09185262065386611
sg42
F0.0015568240788790867
sg392
F0.0036325895173845357
sg43
F0.0041515308770108976
sg45
F0.0020757654385054488
sg277
F0.0005189413596263622
sg168
F0.0005189413596263622
sg48
F0.0031136481577581734
sg50
F0.006746237675142709
sg51
F0.0005189413596263622
sg53
F0.0036325895173845357
sg401
F0.0041515308770108976
sg315
F0.006227296315516347
sg66
F0.0005189413596263622
sg317
F0.0041515308770108976
sg302
F0.0015568240788790867
sg402
F0.0020757654385054488
sg60
F0.0010378827192527244
sg61
F0.00934094447327452
sg62
F0.0041515308770108976
sg63
F0.005189413596263622
sg70
F0.008303061754021795
sg65
F0.005708354955889984
sg319
F0.002594706798131811
sg395
F0.0036325895173845357
sg67
F0.0041515308770108976
sg320
F0.0005189413596263622
sg260
F0.0015568240788790867
sg71
F0.010378827192527244
sg73
F0.002594706798131811
sg323
F0.0005189413596263622
sg77
F0.0010378827192527244
sg78
F0.0015568240788790867
sg167
F0.0015568240788790867
sg83
F0.0005189413596263622
sg85
F0.0005189413596263622
sg56
F0.0020757654385054488
sg325
F0.0020757654385054488
sg326
F0.0010378827192527244
sg241
F0.0005189413596263622
sg87
F0.0010378827192527244
sg282
F0.0041515308770108976
sg89
F0.0005189413596263622
sg159
F0.0015568240788790867
sg90
F0.0005189413596263622
sg404
F0.007265179034769071
sg329
F0.005189413596263622
sg92
F0.006227296315516347
sg94
F0.0015568240788790867
sg95
F0.007784120394395433
sg405
F0.0005189413596263622
sg32
F0.007784120394395433
sg97
F0.0020757654385054488
sg99
F0.005708354955889984
sg101
F0.0010378827192527244
sg102
F0.0015568240788790867
sg103
F0.0005189413596263622
sg104
F0.006227296315516347
sg334
F0.00467047223663726
sg108
F0.0015568240788790867
sg339
F0.0005189413596263622
sg111
F0.0010378827192527244
sg163
F0.0031136481577581734
sg219
F0.0005189413596263622
sg154
F0.007265179034769071
sg116
F0.0031136481577581734
sg266
F0.0010378827192527244
sg337
F0.0015568240788790867
sg119
F0.0031136481577581734
sg384
F0.0005189413596263622
sg340
F0.0020757654385054488
sg120
F0.0041515308770108976
sg343
F0.0005189413596263622
sg344
F0.0041515308770108976
sg122
F0.0010378827192527244
sS'industry'
p413
F0.00934094447327452
sg124
F0.00467047223663726
sg345
F0.0005189413596263622
sg125
F0.006227296315516347
sg346
F0.0005189413596263622
sg127
F0.0005189413596263622
sg129
F0.007265179034769071
sg130
F0.00467047223663726
sg131
F0.005189413596263622
sg132
F0.0015568240788790867
sg348
F0.00934094447327452
sg136
F0.0031136481577581734
sg137
F0.0041515308770108976
sg138
F0.0020757654385054488
sg140
F0.00467047223663726
sg406
F0.007265179034769071
sg143
F0.0005189413596263622
sg144
F0.0036325895173845357
sg21
F0.0036325895173845357
sg147
F0.0005189413596263622
sg148
F0.11520498183705241
sg150
F0.005708354955889984
sg151
F0.007265179034769071
sg152
F0.0041515308770108976
sg351
F0.006746237675142709
sg352
F0.0005189413596263622
sg353
F0.0041515308770108976
sg158
F0.010897768552153606
sg355
F0.0010378827192527244
sg160
F0.0041515308770108976
sg162
F0.0005189413596263622
sg164
F0.0041515308770108976
sg118
F0.0015568240788790867
sg356
F0.002594706798131811
sg305
F0.0041515308770108976
sg274
F0.005189413596263622
sS'housing'
p414
F0.008303061754021795
sg174
F0.005708354955889984
sg172
F0.0036325895173845357
sg173
F0.002594706798131811
sg357
F0.002594706798131811
sg358
F0.0005189413596263622
sg180
F0.0031136481577581734
sg177
F0.005708354955889984
sg109
F0.0010378827192527244
sg181
F0.0010378827192527244
sg183
F0.005189413596263622
sg184
F0.00467047223663726
sS'soup'
p415
F0.005708354955889984
sg360
F0.008822003113648157
sg190
F0.0010378827192527244
sg361
F0.0020757654385054488
sg192
F0.0005189413596263622
sg193
F0.0010378827192527244
sg194
F0.007265179034769071
sg197
F0.0010378827192527244
sg199
F0.005189413596263622
sg364
F0.0031136481577581734
sg399
F0.0020757654385054488
sg365
F0.009859885832900882
sS'buying'
p416
F0.006746237675142709
sg321
F0.0031136481577581734
sg204
F0.005189413596263622
sg205
F0.0005189413596263622
sg206
F0.0005189413596263622
sg207
F0.0036325895173845357
sg210
F0.0036325895173845357
sg211
F0.0005189413596263622
sg354
F0.0036325895173845357
sg215
F0.0005189413596263622
sg216
F0.008303061754021795
sg39
F0.0005189413596263622
sg408
F0.005189413596263622
sg367
F0.002594706798131811
sg368
F0.0020757654385054488
sg222
F0.0010378827192527244
sg224
F0.0010378827192527244
sg369
F0.0036325895173845357
sg37
F0.0015568240788790867
sg370
F0.0015568240788790867
sg228
F0.00467047223663726
sg371
F0.0005189413596263622
sg229
F0.002594706798131811
sg230
F0.0005189413596263622
sg201
F0.002594706798131811
sg232
F0.0041515308770108976
sg373
F0.00467047223663726
sg189
F0.0031136481577581734
sg237
F0.0005189413596263622
sg374
F0.0005189413596263622
sg239
F0.0010378827192527244
sg240
F0.0005189413596263622
sg375
F0.0005189413596263622
sg376
F0.0005189413596263622
sg378
F0.005189413596263622
sg379
F0.002594706798131811
sg380
F0.01401141670991178
sg248
F0.00467047223663726
sg306
F0.0005189413596263622
sg251
F0.0010378827192527244
sg381
F0.0015568240788790867
sg254
F0.0036325895173845357
sg255
F0.0010378827192527244
sg257
F0.005708354955889984
sg55
F0.002594706798131811
sg385
F0.006227296315516347
sS'poor'
p417
F0.005708354955889984
sg74
F0.0005189413596263622
sg386
F0.006746237675142709
sS'farm'
p418
F0.006746237675142709
sg388
F0.005708354955889984
sg265
F0.0005189413596263622
sg389
F0.0036325895173845357
sg268
F0.006227296315516347
sg269
F0.0005189413596263622
sS'eaten'
p419
F0.005708354955889984
sg271
F0.0020757654385054488
sg273
F0.0015568240788790867
sg390
F0.0010378827192527244
sS'meals'
p420
F0.005708354955889984
sg182
F0.0005189413596263622
sg407
F0.0020757654385054488
sg46
F0.0005189413596263622
sg279
F0.00467047223663726
sg280
F0.002594706798131811
sg281
F0.0020757654385054488
sg410
F0.005189413596263622
sg283
F0.005189413596263622
sg286
F0.0010378827192527244
sg214
F0.002594706798131811
sg291
F0.005189413596263622
sg292
F0.0015568240788790867
ss.