(dp0
I1
(dp1
S'stations'
p2
F0.004826802952867689
sS'serving'
p3
F0.0008517887563884157
sS'help'
p4
F0.001135718341851221
sS'chinese'
p5
F0.001135718341851221
sS'show'
p6
F0.021862578080636002
sS'money'
p7
F0.003975014196479273
sS'hands'
p8
F0.0019875070982396364
sS'month'
p9
F0.002555366269165247
sS'produced'
p10
F0.0008517887563884157
sS'press'
p11
F0.0028392958546280523
sS'paper'
p12
F0.00028392958546280523
sS'books'
p13
F0.0008517887563884157
sS'supply'
p14
F0.00028392958546280523
sS'talk'
p15
F0.0019875070982396364
sS'yes'
p16
F0.0031232254400908573
sS'reality'
p17
F0.00653038046564452
sS'find'
p18
F0.002271436683702442
sS'decade'
p19
F0.002271436683702442
sS'move'
p20
F0.001135718341851221
sS'web'
p21
F0.0019875070982396364
sS'certainly'
p22
F0.002555366269165247
sS'trying'
p23
F0.0028392958546280523
sS'group'
p24
F0.003975014196479273
sS'family'
p25
F0.0056785917092561046
sS'personal'
p26
F0.002555366269165247
sS'situations'
p27
F0.0019875070982396364
sS'percent'
p28
F0.0008517887563884157
sS'young'
p29
F0.0005678591709256105
sS'including'
p30
F0.0034071550255536627
sS'actually'
p31
F0.004258943781942078
sS'finally'
p32
F0.0005678591709256105
sS'according'
p33
F0.0017035775127768314
sS'black'
p34
F0.004258943781942078
sS'presidential'
p35
F0.00028392958546280523
sS'officials'
p36
F0.0008517887563884157
sS'watching'
p37
F0.00596252129471891
sS'include'
p38
F0.001135718341851221
sS'local'
p39
F0.0031232254400908573
sS'hope'
p40
F0.00028392958546280523
sS'real'
p41
F0.0008517887563884157
sS'pay'
p42
F0.0005678591709256105
sS'evening'
p43
F0.002555366269165247
sS'hit'
p44
F0.0005678591709256105
sS'government'
p45
F0.004826802952867689
sS'read'
p46
F0.0031232254400908573
sS'washington'
p47
F0.0008517887563884157
sS'stop'
p48
F0.0008517887563884157
sS'television'
p49
F0.07183418512208972
sS'early'
p50
F0.0028392958546280523
sS'game'
p51
F0.001135718341851221
sS'try'
p52
F0.003975014196479273
sS'nearly'
p53
F0.0005678591709256105
sS'half'
p54
F0.004826802952867689
sS'front'
p55
F0.0031232254400908573
sS'taking'
p56
F0.004542873367404884
sS'study'
p57
F0.0014196479273140261
sS'bank'
p58
F0.0019875070982396364
sS'cool'
p59
F0.002271436683702442
sS'going'
p60
F0.011073253833049404
sS'meat'
p61
F0.00028392958546280523
sS'cable'
p62
F0.00653038046564452
sS'companies'
p63
F0.0014196479273140261
sS'morning'
p64
F0.00596252129471891
sS'large'
p65
F0.002271436683702442
sS'michael'
p66
F0.002555366269165247
sS'processed'
p67
F0.0005678591709256105
sS'night'
p68
F0.00653038046564452
sS'popular'
p69
F0.0036910846110164677
sS'found'
p70
F0.0014196479273140261
sS'told'
p71
F0.0005678591709256105
sS'meal'
p72
F0.0014196479273140261
sS'husband'
p73
F0.00028392958546280523
sS'clothes'
p74
F0.0005678591709256105
sS'week'
p75
F0.003975014196479273
sS'owned'
p76
F0.0031232254400908573
sS'set'
p77
F0.0034071550255536627
sS'force'
p78
F0.0031232254400908573
sS'deal'
p79
F0.0014196479273140261
sS'voiceover'
p80
F0.0008517887563884157
sS'house'
p81
F0.004258943781942078
sS'national'
p82
F0.004258943781942078
sS'hard'
p83
F0.0019875070982396364
sS'police'
p84
F0.004258943781942078
sS'past'
p85
F0.001135718341851221
sS'culture'
p86
F0.002555366269165247
sS'likely'
p87
F0.0034071550255536627
sS'cost'
p88
F0.002271436683702442
sS'video'
p89
F0.002555366269165247
sS'magazines'
p90
F0.002555366269165247
sS'images'
p91
F0.0036910846110164677
sS'close'
p92
F0.002555366269165247
sS'bacteria'
p93
F0.00028392958546280523
sS'blue'
p94
F0.002271436683702442
sS'leave'
p95
F0.002271436683702442
sS'shown'
p96
F0.003975014196479273
sS'sign'
p97
F0.0019875070982396364
sS'appear'
p98
F0.0014196479273140261
sS'entertainment'
p99
F0.003975014196479273
sS'lots'
p100
F0.00028392958546280523
sS'god'
p101
F0.00028392958546280523
sS'robert'
p102
F0.005394662123793299
sS'cameras'
p103
F0.003975014196479273
sS'children'
p104
F0.007098239636570131
sS'fans'
p105
F0.002555366269165247
sS'critical'
p106
F0.00028392958546280523
sS'run'
p107
F0.0036910846110164677
sS'internet'
p108
F0.0019875070982396364
sS'progress'
p109
F0.0017035775127768314
sS'learned'
p110
F0.003975014196479273
sS'public'
p111
F0.009085746734809767
sS'red'
p112
F0.0008517887563884157
sS'shows'
p113
F0.005394662123793299
sS'full'
p114
F0.001135718341851221
sS'recently'
p115
F0.0005678591709256105
sS'wanted'
p116
F0.002271436683702442
sS'writing'
p117
F0.0019875070982396364
sS'free'
p118
F0.00028392958546280523
sS'hours'
p119
F0.0068143100511073255
sS'met'
p120
F0.0034071550255536627
sS'host'
p121
F0.0034071550255536627
sS'york'
p122
F0.00653038046564452
sS'groups'
p123
F0.00028392958546280523
sS'served'
p124
F0.00028392958546280523
sS'ask'
p125
F0.0031232254400908573
sS'article'
p126
F0.0019875070982396364
sS'reporters'
p127
F0.0028392958546280523
sS'prepared'
p128
F0.0008517887563884157
sS'kitchen'
p129
F0.0005678591709256105
sS'kids'
p130
F0.004542873367404884
sS'restaurant'
p131
F0.00028392958546280523
sS'country'
p132
F0.0034071550255536627
sS'industry'
p133
F0.00028392958546280523
sS'pictures'
p134
F0.001135718341851221
sS'put'
p135
F0.001135718341851221
sS'days'
p136
F0.0019875070982396364
sS'reports'
p137
F0.0034071550255536627
sS'david'
p138
F0.0028392958546280523
sS'drama'
p139
F0.002555366269165247
sS'thing'
p140
F0.0005678591709256105
sS'american'
p141
F0.0014196479273140261
sS'games'
p142
F0.00596252129471891
sS'advertising'
p143
F0.0017035775127768314
sS'social'
p144
F0.0028392958546280523
sS'action'
p145
F0.004826802952867689
sS'makes'
p146
F0.0008517887563884157
sS'think'
p147
F0.005394662123793299
sS'comes'
p148
F0.00028392958546280523
sS'seeing'
p149
F0.001135718341851221
sS'station'
p150
F0.005394662123793299
sS'love'
p151
F0.0036910846110164677
sS'campaign'
p152
F0.002271436683702442
sS'point'
p153
F0.0019875070982396364
sS'appeared'
p154
F0.0028392958546280523
sS'xyz'
p155
F0.12294151050539466
sS'safety'
p156
F0.00028392958546280523
sS'community'
p157
F0.0008517887563884157
sS'channels'
p158
F0.003975014196479273
sS'production'
p159
F0.00028392958546280523
sS'americans'
p160
F0.00028392958546280523
sS'learning'
p161
F0.002271436683702442
sS'news'
p162
F0.009653605905735378
sS'total'
p163
F0.001135718341851221
sS'teach'
p164
F0.0014196479273140261
sS'market'
p165
F0.002271436683702442
sS'city'
p166
F0.004542873367404884
sS'story'
p167
F0.0019875070982396364
sS'law'
p168
F0.0034071550255536627
sS'computer'
p169
F0.004258943781942078
sS'service'
p170
F0.00028392958546280523
sS'small'
p171
F0.0008517887563884157
sS'bush'
p172
F0.0068143100511073255
sS'start'
p173
F0.0028392958546280523
sS'live'
p174
F0.008233957978421351
sS'camera'
p175
F0.00028392958546280523
sS'music'
p176
F0.0028392958546280523
sS'lot'
p177
F0.001135718341851221
sS'newspapers'
p178
F0.007666098807495741
sS'qualify'
p179
F0.0014196479273140261
sS'parents'
p180
F0.005110732538330494
sS'white'
p181
F0.0019875070982396364
sS'john'
p182
F0.0005678591709256105
sS'markets'
p183
F0.001135718341851221
sS'tell'
p184
F0.00028392958546280523
sS'today'
p185
F0.00596252129471891
sS'sort'
p186
F0.0017035775127768314
sS'ago'
p187
F0.0017035775127768314
sS'buy'
p188
F0.00028392958546280523
sS'north'
p189
F0.002555366269165247
sS'stars'
p190
F0.0034071550255536627
sS'toolong'
p191
F0.00028392958546280523
sS'turned'
p192
F0.006246450880181715
sS'gas'
p193
F0.0019875070982396364
sS'took'
p194
F0.003975014196479273
sS'broadcast'
p195
F0.00596252129471891
sS'boys'
p196
F0.00028392958546280523
sS'part'
p197
F0.0008517887563884157
sS'investigation'
p198
F0.00028392958546280523
sS'child'
p199
F0.00028392958546280523
sS'general'
p200
F0.002555366269165247
sS'eat'
p201
F0.00028392958546280523
sS'present'
p202
F0.0014196479273140261
sS'longer'
p203
F0.0019875070982396364
sS'case'
p204
F0.001135718341851221
sS'king'
p205
F0.00596252129471891
sS'kind'
p206
F0.0008517887563884157
sS'decided'
p207
F0.0019875070982396364
sS'look'
p208
F0.0036910846110164677
sS'hour'
p209
F0.003975014196479273
sS'things'
p210
F0.004542873367404884
sS'science'
p211
F0.002555366269165247
sS'bill'
p212
F0.002555366269165247
sS'sex'
p213
F0.0005678591709256105
sS'cash'
p214
F0.0008517887563884157
sS'movie'
p215
F0.004258943781942078
sS'movies'
p216
F0.007666098807495741
sS'states'
p217
F0.001135718341851221
sS'defense'
p218
F0.002271436683702442
sS'report'
p219
F0.0031232254400908573
sS'making'
p220
F0.0008517887563884157
sS'providing'
p221
F0.001135718341851221
sS'vice'
p222
F0.0036910846110164677
sS'called'
p223
F0.004542873367404884
sS'radio'
p224
F0.015616127200454287
sS'history'
p225
F0.0036910846110164677
sS'control'
p226
F0.002555366269165247
sS'program'
p227
F0.0036910846110164677
sS'president'
p228
F0.005110732538330494
sS'limbaugh'
p229
F0.004542873367404884
sS'give'
p230
F0.0008517887563884157
sS'sense'
p231
F0.0005678591709256105
sS'share'
p232
F0.00028392958546280523
sS'street'
p233
F0.00028392958546280523
sS'war'
p234
F0.002555366269165247
sS'evidence'
p235
F0.0028392958546280523
sS'high'
p236
F0.004826802952867689
sS'talking'
p237
F0.0056785917092561046
sS'selling'
p238
F0.0014196479273140261
sS'room'
p239
F0.00028392958546280523
sS'numbers'
p240
F0.0008517887563884157
sS'want'
p241
F0.0014196479273140261
sS'seen'
p242
F0.007950028392958546
sS'need'
p243
F0.002271436683702442
sS'politics'
p244
F0.0014196479273140261
sS'times'
p245
F0.001135718341851221
sS'saw'
p246
F0.004542873367404884
sS'film'
p247
F0.003975014196479273
sS'information'
p248
F0.0036910846110164677
sS'watched'
p249
F0.00653038046564452
sS'end'
p250
F0.00028392958546280523
sS'dishes'
p251
F0.0008517887563884157
sS'turn'
p252
F0.004542873367404884
sS'media'
p253
F0.009937535491198184
sS'began'
p254
F0.0014196479273140261
sS'means'
p255
F0.0005678591709256105
sS'administration'
p256
F0.00028392958546280523
sS'event'
p257
F0.0036910846110164677
sS'rules'
p258
F0.00028392958546280523
sS'book'
p259
F0.0056785917092561046
sS'sick'
p260
F0.00028392958546280523
sS'interview'
p261
F0.0019875070982396364
sS'party'
p262
F0.0005678591709256105
sS'writer'
p263
F0.0017035775127768314
sS'projects'
p264
F0.0017035775127768314
sS'channel'
p265
F0.002555366269165247
sS'higher'
p266
F0.00028392958546280523
sS'poor'
p267
F0.00028392958546280523
sS'independent'
p268
F0.0036910846110164677
sS'play'
p269
F0.0031232254400908573
sS'sure'
p270
F0.002271436683702442
sS'series'
p271
F0.0073821692220329355
sS'watch'
p272
F0.010221465076660987
sS'effect'
p273
F0.0005678591709256105
sS'paid'
p274
F0.00028392958546280523
sS'includes'
p275
F0.00028392958546280523
sS'tonight'
p276
F0.0036910846110164677
sS'produce'
p277
F0.0005678591709256105
sS'recent'
p278
F0.0028392958546280523
sS'studies'
p279
F0.005110732538330494
sS'coverage'
p280
F0.003975014196479273
sS'coming'
p281
F0.0034071550255536627
sS'court'
p282
F0.0005678591709256105
sS'america'
p283
F0.0056785917092561046
sS'network'
p284
F0.0068143100511073255
sS'billion'
p285
F0.00028392958546280523
sS'break'
p286
F0.006246450880181715
sS'center'
p287
F0.0019875070982396364
sS'programs'
p288
F0.0073821692220329355
sS'maybe'
p289
F0.0008517887563884157
sS'later'
p290
F0.002271436683702442
sS'looked'
p291
F0.003975014196479273
sS'broadcasting'
p292
F0.0017035775127768314
sS'place'
p293
F0.0028392958546280523
sS'women'
p294
F0.0017035775127768314
sS'mother'
p295
F0.0031232254400908573
sS'fact'
p296
F0.0005678591709256105
ssI2
(dp297
S'summer'
p298
F0.0037854889589905363
sg3
F0.0009463722397476341
sS'truck'
p299
F0.003470031545741325
sS'consider'
p300
F0.0018927444794952682
sS'chain'
p301
F0.0031545741324921135
sg6
F0.0012618296529968455
sS'increasingly'
p302
F0.0018927444794952682
sg7
F0.003470031545741325
sg20
F0.0031545741324921135
sg277
F0.0012618296529968455
sg9
F0.0037854889589905363
sg10
F0.002523659305993691
sS'bring'
p303
F0.0009463722397476341
sg30
F0.005047318611987382
sg124
F0.005362776025236593
sg16
F0.0006309148264984228
sS'sidebar'
p304
F0.0031545741324921135
sg104
F0.0003154574132492114
sg19
F0.0015772870662460567
sg4
F0.003470031545741325
sg21
F0.0037854889589905363
sg191
F0.0003154574132492114
sg23
F0.0009463722397476341
sS'based'
p305
F0.0031545741324921135
sg5
F0.0022082018927444794
sS'thinking'
p306
F0.004100946372239748
sg26
F0.0006309148264984228
sg27
F0.0012618296529968455
sg28
F0.004100946372239748
sg29
F0.0003154574132492114
sg31
F0.0018927444794952682
sS'source'
p307
F0.003470031545741325
sg32
F0.0009463722397476341
sg33
F0.0018927444794952682
sg57
F0.0012618296529968455
sg156
F0.0022082018927444794
sg38
F0.0022082018927444794
sg39
F0.0018927444794952682
sS'easier'
p308
F0.004100946372239748
sS'dad'
p309
F0.0006309148264984228
sS'activities'
p310
F0.0003154574132492114
sg43
F0.0015772870662460567
sg44
F0.003470031545741325
sS'food'
p311
F0.12018927444794952
sS'big'
p312
F0.0003154574132492114
sg221
F0.0015772870662460567
sg48
F0.0003154574132492114
sS'woman'
p313
F0.005362776025236593
sS'nation'
p314
F0.0015772870662460567
sg51
F0.0003154574132492114
sg8
F0.0006309148264984228
sS'cook'
p315
F0.004416403785488959
sg56
F0.0003154574132492114
sS'products'
p316
F0.0009463722397476341
sS'areas'
p317
F0.004100946372239748
sS'county'
p318
F0.0037854889589905363
sg61
F0.0018927444794952682
sS'held'
p319
F0.0012618296529968455
sS'nutrition'
p320
F0.0037854889589905363
sg66
F0.0022082018927444794
sg95
F0.0003154574132492114
sg67
F0.0009463722397476341
sS'activity'
p321
F0.0015772870662460567
sg171
F0.007570977917981073
sg70
F0.007886435331230283
sS'security'
p322
F0.0056782334384858045
sS'spent'
p323
F0.0056782334384858045
sg72
F0.0031545741324921135
sg73
F0.0009463722397476341
sg74
F0.0018927444794952682
sS'heavy'
p324
F0.004416403785488959
sS'population'
p325
F0.0006309148264984228
sg77
F0.0031545741324921135
sS'weight'
p326
F0.00473186119873817
sg81
F0.004100946372239748
sS'energy'
p327
F0.005362776025236593
sg83
F0.0003154574132492114
sS'pantry'
p328
F0.00473186119873817
sg24
F0.0003154574132492114
sg85
F0.0028391167192429023
sg86
F0.0006309148264984228
sg218
F0.0012618296529968455
sg92
F0.0012618296529968455
sS'agriculture'
p329
F0.0037854889589905363
sg93
F0.0022082018927444794
sg94
F0.0009463722397476341
sg52
F0.0003154574132492114
sg252
F0.0003154574132492114
sg115
F0.0012618296529968455
sg98
F0.0006309148264984228
sS'factors'
p330
F0.003470031545741325
sg100
F0.0009463722397476341
sg215
F0.0006309148264984228
sg102
F0.0006309148264984228
sg103
F0.0003154574132492114
sS'ice'
p331
F0.0028391167192429023
sg18
F0.0003154574132492114
sS'access'
p332
F0.007255520504731861
sg106
F0.0018927444794952682
sS'health'
p333
F0.008517350157728707
sS'issues'
p334
F0.0006309148264984228
sg110
F0.0003154574132492114
sg112
F0.0022082018927444794
sg71
F0.0018927444794952682
sg114
F0.00473186119873817
sS'eating'
p335
F0.015141955835962145
sS'million'
p336
F0.0012618296529968455
sg118
F0.005993690851735016
sS'water'
p337
F0.011041009463722398
sg179
F0.0018927444794952682
sS'joe'
p338
F0.0037854889589905363
sg123
F0.0037854889589905363
sg220
F0.004100946372239748
sg135
F0.0006309148264984228
sg126
F0.0009463722397476341
sg127
F0.0003154574132492114
sg275
F0.0028391167192429023
sS'change'
p339
F0.0018927444794952682
sS'care'
p340
F0.002523659305993691
sS'plates'
p341
F0.0031545741324921135
sS'climate'
p342
F0.0031545741324921135
sS'ate'
p343
F0.003470031545741325
sS'benefits'
p344
F0.0031545741324921135
sg170
F0.00694006309148265
sg131
F0.007255520504731861
sg132
F0.0009463722397476341
sg133
F0.0003154574132492114
sS'favorite'
p345
F0.0012618296529968455
sg136
F0.005993690851735016
sS'drug'
p346
F0.007570977917981073
sg138
F0.002523659305993691
sg140
F0.0009463722397476341
sg141
F0.004100946372239748
sS'person'
p347
F0.0037854889589905363
sg142
F0.0003154574132492114
sS'places'
p348
F0.005362776025236593
sg41
F0.0009463722397476341
sS'italian'
p349
F0.0015772870662460567
sS'asked'
p350
F0.0022082018927444794
sg148
F0.004416403785488959
sS'prices'
p351
F0.006309148264984227
sg151
F0.0018927444794952682
sg25
F0.0056782334384858045
sg14
F0.006309148264984227
sS'color'
p352
F0.0009463722397476341
sg155
F0.12176656151419558
sg97
F0.0006309148264984228
sS'brought'
p353
F0.002523659305993691
sg159
F0.005047318611987382
sg160
F0.002523659305993691
sS'thought'
p354
F0.005362776025236593
sg162
F0.0006309148264984228
sS'table'
p355
F0.0018927444794952682
sS'cups'
p356
F0.004100946372239748
sS'open'
p357
F0.0003154574132492114
sg164
F0.0009463722397476341
sS'expensive'
p358
F0.0003154574132492114
sg167
F0.0028391167192429023
sg168
F0.0003154574132492114
sS'quality'
p359
F0.003470031545741325
sS'housing'
p360
F0.004100946372239748
sS'system'
p361
F0.0022082018927444794
sS'fast'
p362
F0.008832807570977918
sg173
F0.0003154574132492114
sS'beer'
p363
F0.0037854889589905363
sg175
F0.010725552050473186
sS'call'
p364
F0.0037854889589905363
sg177
F0.0056782334384858045
sg271
F0.0006309148264984228
sg176
F0.0012618296529968455
sg181
F0.0028391167192429023
sg182
F0.0037854889589905363
sg82
F0.0009463722397476341
sg185
F0.0018927444794952682
sg187
F0.0022082018927444794
sS'head'
p365
F0.0028391167192429023
sg188
F0.0028391167192429023
sg189
F0.0012618296529968455
sS'form'
p366
F0.005047318611987382
sg288
F0.0037854889589905363
sg60
F0.0012618296529968455
sS'company'
p367
F0.0009463722397476341
sg193
F0.0015772870662460567
sg194
F0.005993690851735016
sg129
F0.0003154574132492114
sg195
F0.0006309148264984228
sS'environmental'
p368
F0.0031545741324921135
sg197
F0.007570977917981073
sg198
F0.002523659305993691
sg199
F0.0022082018927444794
sS'baby'
p369
F0.0003154574132492114
sg213
F0.002523659305993691
sg201
F0.02145110410094637
sg203
F0.0009463722397476341
sg204
F0.0012618296529968455
sg217
F0.0003154574132492114
sg206
F0.002523659305993691
sg207
F0.0006309148264984228
sg239
F0.0037854889589905363
sg209
F0.0012618296529968455
sg210
F0.0022082018927444794
sg211
F0.0003154574132492114
sg212
F0.0006309148264984228
sg214
F0.0003154574132492114
sg13
F0.0003154574132492114
sS'growing'
p370
F0.0006309148264984228
sS'aid'
p371
F0.0015772870662460567
sS'fried'
p372
F0.0006309148264984228
sg223
F0.0012618296529968455
sg227
F0.0028391167192429023
sS'figure'
p373
F0.0028391167192429023
sg230
F0.0028391167192429023
sS'taste'
p374
F0.0018927444794952682
sg47
F0.0022082018927444794
sg231
F0.002523659305993691
sg232
F0.0006309148264984228
sg233
F0.0012618296529968455
sg235
F0.0003154574132492114
sg236
F0.008201892744479496
sS'foods'
p375
F0.005993690851735016
sg238
F0.0009463722397476341
sg240
F0.002523659305993691
sg241
F0.005047318611987382
sS'home'
p376
F0.008832807570977918
sg243
F0.007570977917981073
sg245
F0.0006309148264984228
sS'clothing'
p377
F0.003470031545741325
sS'species'
p378
F0.004100946372239748
sS'sat'
p379
F0.004100946372239748
sS'grown'
p380
F0.0006309148264984228
sg248
F0.0018927444794952682
sS'needs'
p381
F0.0015772870662460567
sS'united'
p382
F0.0012618296529968455
sg250
F0.0022082018927444794
sg251
F0.0006309148264984228
sS'author'
p383
F0.006309148264984227
sg42
F0.0037854889589905363
sg254
F0.003470031545741325
sg256
F0.007255520504731861
sg46
F0.0018927444794952682
sg260
F0.004100946372239748
sg261
F0.0015772870662460567
sg262
F0.0022082018927444794
sg266
F0.002523659305993691
sg75
F0.0056782334384858045
sg80
F0.003470031545741325
sg269
F0.0015772870662460567
sS'oil'
p384
F0.002523659305993691
sg272
F0.0006309148264984228
sS'drink'
p385
F0.003470031545741325
sg274
F0.0018927444794952682
sS'hand'
p386
F0.0009463722397476341
sg276
F0.0003154574132492114
sS'important'
p387
F0.0018927444794952682
sS'eaten'
p388
F0.0009463722397476341
sg281
F0.0012618296529968455
sg228
F0.0009463722397476341
sg283
F0.0012618296529968455
sS'friends'
p389
F0.004416403785488959
sS'meals'
p390
F0.002523659305993691
sg84
F0.0012618296529968455
sg278
F0.0009463722397476341
sg285
F0.0028391167192429023
sS'safe'
p391
F0.003470031545741325
sg287
F0.004416403785488959
sg196
F0.0028391167192429023
sg258
F0.0022082018927444794
sg289
F0.0003154574132492114
sg99
F0.0003154574132492114
sS'working'
p392
F0.004100946372239748
sS'hungry'
p393
F0.0003154574132492114
sg147
F0.004416403785488959
sg291
F0.002523659305993691
sS'cooked'
p394
F0.0056782334384858045
sg128
F0.004100946372239748
sg294
F0.0003154574132492114
sg295
F0.003470031545741325
sS'fresh'
p395
F0.0056782334384858045
sS'spend'
p396
F0.0015772870662460567
sg15
F0.0012618296529968455
sS'left'
p397
F0.0006309148264984228
ssI3
(dp398
g300
F0.004784688995215311
sg5
F0.0023923444976076554
sg302
F0.003189792663476874
sg9
F0.001594896331738437
sg10
F0.0023923444976076554
sg303
F0.003987240829346092
sg13
F0.006379585326953748
sg304
F0.0007974481658692185
sg104
F0.008771929824561403
sg4
F0.003189792663476874
sg23
F0.005582137161084529
sg24
F0.0023923444976076554
sg25
F0.0007974481658692185
sg313
F0.006379585326953748
sg55
F0.011961722488038277
sg14
F0.0007974481658692185
sS'father'
p399
F0.019138755980861243
sg29
F0.01036682615629984
sg31
F0.0007974481658692185
sg32
F0.007177033492822967
sg60
F0.005582137161084529
sg156
F0.001594896331738437
sg37
F0.018341307814992026
sg59
F0.0007974481658692185
sg39
F0.001594896331738437
sg40
F0.0023923444976076554
sg309
F0.007177033492822967
sg43
F0.001594896331738437
sg44
F0.003987240829346092
sg205
F0.003189792663476874
sg11
F0.0007974481658692185
sg312
F0.011164274322169059
sg48
F0.001594896331738437
sg314
F0.005582137161084529
sg50
F0.0023923444976076554
sg51
F0.009569377990430622
sS'words'
p400
F0.009569377990430622
sg341
F0.0007974481658692185
sg315
F0.001594896331738437
sg35
F0.007974481658692184
sS'furniture'
p401
F0.008771929824561403
sg62
F0.007974481658692184
sg319
F0.005582137161084529
sg33
F0.0023923444976076554
sg95
F0.003189792663476874
sg321
F0.003987240829346092
sg171
F0.005582137161084529
sg70
F0.001594896331738437
sg71
F0.006379585326953748
sg72
F0.005582137161084529
sg73
F0.006379585326953748
sg74
F0.003189792663476874
sg77
F0.003987240829346092
sg79
F0.0007974481658692185
sg81
F0.0007974481658692185
sg82
F0.001594896331738437
sg83
F0.005582137161084529
sg97
F0.0023923444976076554
sg85
F0.0023923444976076554
sg88
F0.0023923444976076554
sg89
F0.001594896331738437
sg92
F0.005582137161084529
sg140
F0.005582137161084529
sg98
F0.0023923444976076554
sg100
F0.004784688995215311
sg101
F0.001594896331738437
sg102
F0.0007974481658692185
sg331
F0.001594896331738437
sg105
F0.001594896331738437
sg106
F0.003189792663476874
sg333
F0.003189792663476874
sg108
F0.003987240829346092
sg112
F0.0007974481658692185
sg113
F0.003189792663476874
sg191
F0.0023923444976076554
sg115
F0.003987240829346092
sS'screen'
p402
F0.011961722488038277
sg336
F0.018341307814992026
sg150
F0.0007974481658692185
sg119
F0.009569377990430622
sg123
F0.003987240829346092
sg220
F0.0023923444976076554
sg135
F0.004784688995215311
sg305
F0.0023923444976076554
sg164
F0.001594896331738437
sg275
F0.0007974481658692185
sg340
F0.001594896331738437
sg221
F0.001594896331738437
sg132
F0.003987240829346092
sg57
F0.0023923444976076554
sS'months'
p403
F0.0007974481658692185
sg345
F0.0023923444976076554
sg136
F0.0007974481658692185
sg346
F0.0007974481658692185
sg138
F0.001594896331738437
sg139
F0.0023923444976076554
sg26
F0.0007974481658692185
sg141
F0.017543859649122806
sg142
F0.0007974481658692185
sg143
F0.004784688995215311
sg144
F0.003189792663476874
sg41
F0.004784688995215311
sg349
F0.011164274322169059
sg146
F0.0007974481658692185
sg350
F0.004784688995215311
sg148
F0.0023923444976076554
sg149
F0.0007974481658692185
sS'major'
p404
F0.01036682615629984
sS'industrial'
p405
F0.0023923444976076554
sS'colorado'
p406
F0.003189792663476874
sg152
F0.003987240829346092
sg153
F0.003189792663476874
sg154
F0.0007974481658692185
sg155
F0.09649122807017543
sg47
F0.0023923444976076554
sS'number'
p407
F0.01036682615629984
sg76
F0.0007974481658692185
sg158
F0.0007974481658692185
sg161
F0.0023923444976076554
sS'soul'
p408
F0.003987240829346092
sg163
F0.003189792663476874
sg357
F0.003987240829346092
sg358
F0.007974481658692184
sg242
F0.003189792663476874
sg116
F0.0023923444976076554
sg36
F0.005582137161084529
sg326
F0.0007974481658692185
sg392
F0.003189792663476874
sS'works'
p409
F0.001594896331738437
sS'spending'
p410
F0.011961722488038277
sg361
F0.003189792663476874
sg175
F0.0007974481658692185
sg364
F0.004784688995215311
sg177
F0.0007974481658692185
sg271
F0.0007974481658692185
sg294
F0.019936204146730464
sg181
F0.001594896331738437
sg182
F0.001594896331738437
sg185
F0.001594896331738437
sg186
F0.0023923444976076554
sS'building'
p411
F0.009569377990430622
sg365
F0.003189792663476874
sg188
F0.003189792663476874
sg189
F0.0007974481658692185
sg192
F0.0007974481658692185
sg367
F0.01036682615629984
sg249
F0.007974481658692184
sg129
F0.0023923444976076554
sg195
F0.0007974481658692185
sg197
F0.0007974481658692185
sg199
F0.0007974481658692185
sg369
F0.001594896331738437
sg200
F0.0007974481658692185
sg201
F0.0007974481658692185
sS'buying'
p412
F0.003189792663476874
sg325
F0.0007974481658692185
sg204
F0.0007974481658692185
sS'homes'
p413
F0.009569377990430622
sg49
F0.050239234449760764
sg38
F0.001594896331738437
sg207
F0.0007974481658692185
sg208
F0.0007974481658692185
sg211
F0.001594896331738437
sg212
F0.0007974481658692185
sg214
F0.004784688995215311
sg215
F0.001594896331738437
sg216
F0.0007974481658692185
sg169
F0.003987240829346092
sg371
F0.0007974481658692185
sg372
F0.0007974481658692185
sg224
F0.004784688995215311
sg187
F0.001594896331738437
sg227
F0.0007974481658692185
sg374
F0.001594896331738437
sg231
F0.0007974481658692185
sg232
F0.005582137161084529
sg233
F0.0023923444976076554
sg235
F0.001594896331738437
sg237
F0.0007974481658692185
sg238
F0.0007974481658692185
sg240
F0.0007974481658692185
sg137
F0.001594896331738437
sg376
F0.0007974481658692185
sg243
F0.003189792663476874
sg244
F0.007177033492822967
sg245
F0.004784688995215311
sg246
F0.0007974481658692185
sg379
F0.0007974481658692185
sg248
F0.006379585326953748
sg381
F0.006379585326953748
sg250
F0.004784688995215311
sg251
F0.001594896331738437
sg383
F0.005582137161084529
sg253
F0.001594896331738437
sg254
F0.0007974481658692185
sg255
F0.01036682615629984
sg28
F0.0007974481658692185
sg263
F0.0023923444976076554
sg107
F0.0007974481658692185
sg259
F0.0007974481658692185
sg261
F0.0007974481658692185
sg262
F0.001594896331738437
sg268
F0.001594896331738437
sg272
F0.005582137161084529
sg273
F0.005582137161084529
sg274
F0.006379585326953748
sg386
F0.009569377990430622
sg387
F0.005582137161084529
sg278
F0.004784688995215311
sg228
F0.001594896331738437
sg283
F0.003189792663476874
sg284
F0.005582137161084529
sg285
F0.004784688995215311
sg239
F0.012759170653907496
sg289
F0.003189792663476874
sg290
F0.0007974481658692185
sg347
F0.0023923444976076554
sg292
F0.006379585326953748
sg299
F0.0007974481658692185
sg293
F0.003987240829346092
sg117
F0.0007974481658692185
sg295
F0.0007974481658692185
sg395
F0.0007974481658692185
sS'father_#-1'
p414
F0.009569377990430622
sg396
F0.005582137161084529
sg15
F0.001594896331738437
sg397
F0.007974481658692184
ssI4
(dp415
g210
F0.0018450184501845018
sg3
F0.0036900369003690036
sg4
F0.006150061500615006
sg301
F0.006150061500615006
sg6
F0.0036900369003690036
sg302
F0.0036900369003690036
sg8
F0.0024600246002460025
sg303
F0.004305043050430504
sg12
F0.007380073800738007
sg30
F0.0006150061500615006
sg304
F0.0006150061500615006
sg104
F0.01107011070110701
sg334
F0.010455104551045511
sg21
F0.0006150061500615006
sg22
F0.0024600246002460025
sg23
F0.0018450184501845018
sg305
F0.0018450184501845018
sg5
F0.0006150061500615006
sg316
F0.00922509225092251
sg263
F0.0012300123001230013
sg399
F0.0012300123001230013
sg29
F0.0006150061500615006
sg117
F0.0018450184501845018
sg352
F0.004920049200492005
sg172
F0.0006150061500615006
sg60
F0.004305043050430504
sg34
F0.0006150061500615006
sg202
F0.0036900369003690036
sg156
F0.010455104551045511
sg59
F0.0012300123001230013
sg39
F0.01107011070110701
sg40
F0.006150061500615006
sg309
F0.0006150061500615006
sg310
F0.006765067650676507
sg44
F0.0012300123001230013
sg45
F0.0012300123001230013
sg311
F0.1008610086100861
sg48
F0.006150061500615006
sg49
F0.0006150061500615006
sg314
F0.004305043050430504
sg286
F0.0006150061500615006
sg392
F0.0006150061500615006
sg134
F0.004305043050430504
sg53
F0.006150061500615006
sg400
F0.0018450184501845018
sg54
F0.003075030750307503
sg315
F0.0012300123001230013
sg58
F0.0036900369003690036
sg317
F0.003075030750307503
sg61
F0.004920049200492005
sg33
F0.0006150061500615006
sg63
F0.0036900369003690036
sg65
F0.01107011070110701
sg67
F0.006150061500615006
sg321
F0.0018450184501845018
sg90
F0.0012300123001230013
sg322
F0.0024600246002460025
sg409
F0.006150061500615006
sg72
F0.0012300123001230013
sg74
F0.0006150061500615006
sg77
F0.0018450184501845018
sg79
F0.003075030750307503
sg271
F0.0006150061500615006
sg327
F0.0018450184501845018
sg83
F0.0006150061500615006
sg24
F0.0012300123001230013
sg86
F0.0012300123001230013
sg207
F0.0012300123001230013
sg376
F0.0006150061500615006
sg329
F0.0024600246002460025
sg52
F0.004920049200492005
sg252
F0.0006150061500615006
sg163
F0.004305043050430504
sg99
F0.0006150061500615006
sg100
F0.003075030750307503
sg101
F0.006150061500615006
sg103
F0.0006150061500615006
sg18
F0.007380073800738007
sS'stamps'
p416
F0.008610086100861008
sg198
F0.0012300123001230013
sg333
F0.0006150061500615006
sg109
F0.004920049200492005
sg110
F0.0018450184501845018
sg111
F0.003075030750307503
sg112
F0.0012300123001230013
sg113
F0.0024600246002460025
sg114
F0.0012300123001230013
sg335
F0.0006150061500615006
sg336
F0.0024600246002460025
sg337
F0.0018450184501845018
sg179
F0.0006150061500615006
sg122
F0.0012300123001230013
sg125
F0.0006150061500615006
sg126
F0.0006150061500615006
sg127
F0.0006150061500615006
sg116
F0.0006150061500615006
sg339
F0.004305043050430504
sg340
F0.0018450184501845018
sg342
F0.0024600246002460025
sg130
F0.0036900369003690036
sg344
F0.0006150061500615006
sg170
F0.0006150061500615006
sg131
F0.0006150061500615006
sg132
F0.0012300123001230013
sg133
F0.00984009840098401
sg403
F0.008610086100861008
sg345
F0.0024600246002460025
sg136
F0.0012300123001230013
sg346
F0.0012300123001230013
sg138
F0.0018450184501845018
sg140
F0.006150061500615006
sg141
F0.0012300123001230013
sg277
F0.003075030750307503
sg293
F0.0006150061500615006
sg144
F0.0006150061500615006
sg146
F0.004305043050430504
sg147
F0.006765067650676507
sg148
F0.0012300123001230013
sg149
F0.005535055350553505
sg405
F0.007995079950799507
sg151
F0.0006150061500615006
sg406
F0.006765067650676507
sg25
F0.003075030750307503
sg14
F0.0006150061500615006
sg154
F0.0006150061500615006
sg155
F0.11316113161131611
sg407
F0.005535055350553505
sg157
F0.01107011070110701
sg353
F0.004305043050430504
sg135
F0.006765067650676507
sg160
F0.0024600246002460025
sg408
F0.005535055350553505
sg355
F0.011685116851168511
sg356
F0.0006150061500615006
sg357
F0.0036900369003690036
sg164
F0.0006150061500615006
sg165
F0.0024600246002460025
sg166
F0.004305043050430504
sg359
F0.0018450184501845018
sg307
F0.0006150061500615006
sg360
F0.0018450184501845018
sg68
F0.0006150061500615006
sg361
F0.006765067650676507
sg173
F0.0036900369003690036
sg174
F0.006150061500615006
sg227
F0.0006150061500615006
sg176
F0.006765067650676507
sg177
F0.005535055350553505
sg180
F0.0012300123001230013
sg181
F0.0018450184501845018
sg129
F0.01107011070110701
sg183
F0.006150061500615006
sg184
F0.006765067650676507
sg186
F0.0018450184501845018
sg188
F0.012300123001230012
sg191
F0.0036900369003690036
sg192
F0.0036900369003690036
sg367
F0.004920049200492005
sg193
F0.0012300123001230013
sg194
F0.0012300123001230013
sg368
F0.003075030750307503
sg199
F0.003075030750307503
sg369
F0.004920049200492005
sg213
F0.0024600246002460025
sg412
F0.005535055350553505
sg325
F0.006150061500615006
sg204
F0.0024600246002460025
sg217
F0.008610086100861008
sg206
F0.003075030750307503
sg288
F0.003075030750307503
sg214
F0.0012300123001230013
sg234
F0.0024600246002460025
sS'soup'
p417
F0.006765067650676507
sg36
F0.0024600246002460025
sg370
F0.005535055350553505
sg371
F0.00984009840098401
sg372
F0.004920049200492005
sg56
F0.004305043050430504
sg225
F0.0018450184501845018
sg226
F0.003075030750307503
sg41
F0.004920049200492005
sg290
F0.006765067650676507
sg373
F0.0012300123001230013
sg230
F0.0012300123001230013
sg374
F0.003075030750307503
sg232
F0.0012300123001230013
sg233
F0.003075030750307503
sg200
F0.0036900369003690036
sg236
F0.0006150061500615006
sg237
F0.0006150061500615006
sg375
F0.0006150061500615006
sg238
F0.0018450184501845018
sg241
F0.0036900369003690036
sg231
F0.0006150061500615006
sg243
F0.0012300123001230013
sg245
F0.0018450184501845018
sg247
F0.0006150061500615006
sg380
F0.005535055350553505
sg248
F0.0012300123001230013
sg382
F0.014760147601476014
sg250
F0.0012300123001230013
sg251
F0.0036900369003690036
sg347
F0.0012300123001230013
sg42
F0.0006150061500615006
sg28
F0.0006150061500615006
sg46
F0.0018450184501845018
sg259
F0.0018450184501845018
sg262
F0.004920049200492005
sg264
F0.004305043050430504
sg266
F0.004305043050430504
sg267
F0.006150061500615006
sg384
F0.0036900369003690036
sS'farm'
p418
F0.007995079950799507
sg273
F0.0018450184501845018
sg128
F0.0006150061500615006
sg270
F0.003075030750307503
sg387
F0.003075030750307503
sg279
F0.0012300123001230013
sg388
F0.004920049200492005
sg282
F0.005535055350553505
sg283
F0.0018450184501845018
sS'weekend'
p419
F0.006765067650676507
sg390
F0.0018450184501845018
sg278
F0.0006150061500615006
sg411
F0.0018450184501845018
sg50
F0.0006150061500615006
sg203
F0.0012300123001230013
sg196
F0.0012300123001230013
sg258
F0.0018450184501845018
sg289
F0.0024600246002460025
sS'farmers'
p420
F0.00922509225092251
sg393
F0.006150061500615006
sg291
F0.0012300123001230013
sg394
F0.0006150061500615006
sg299
F0.0018450184501845018
sg215
F0.0018450184501845018
sg296
F0.006765067650676507
sg397
F0.0036900369003690036
ss.