(dp0
I1
(dp1
S'And'
p2
F0.04421768707482993
sS'tear_#1'
p3
F0.11224489795918367
sS'look'
p4
F0.047619047619047616
sS'tear'
p5
F0.11224489795918367
sS'But'
p6
F0.06462585034013606
sS'She'
p7
F0.05442176870748299
sS'need'
p8
F0.03741496598639456
sS"I'm"
p9
F0.04081632653061224
sS'The'
p10
F0.13945578231292516
sS'wear'
p11
F0.3469387755102041
ss.