(dp0
I1
(dp1
S'limited'
p2
F0.0006022886970487854
sS'consider'
p3
F0.0006022886970487854
sS'chinese'
p4
F0.0008030515960650472
sS'saying'
p5
F0.0016061031921300944
sS'month'
p6
F0.0008030515960650472
sS'known'
p7
F0.0004015257980325236
sS'children'
p8
F0.008231278859666733
sS'looking'
p9
F0.0006022886970487854
sS'certainly'
p10
F0.0014053402931138326
sS'show'
p11
F0.016061031921300945
sS'father'
p12
F0.004818309576390283
sS'young'
p13
F0.0024091547881951417
sS'environment'
p14
F0.001003814495081309
sS'list'
p15
F0.0006022886970487854
sS'finally'
p16
F0.0012045773940975708
sS'program'
p17
F0.0024091547881951417
sS'include'
p18
F0.001003814495081309
sS'television_#3'
p19
F0.0014053402931138326
sS'worth'
p20
F0.0004015257980325236
sS'woman'
p21
F0.0012045773940975708
sS'street'
p22
F0.0002007628990162618
sS'worse'
p23
F0.0008030515960650472
sS'regional'
p24
F0.0008030515960650472
sS'cook'
p25
F0.0004015257980325236
sS'cool'
p26
F0.0012045773940975708
sS'school'
p27
F0.0008030515960650472
sS'network_#1'
p28
F0.0018068660911463562
sS'prize'
p29
F0.0006022886970487854
sS'cable'
p30
F0.005420598273439069
sS'die'
p31
F0.0002007628990162618
sS'companies'
p32
F0.0016061031921300944
sS'large'
p33
F0.0014053402931138326
sS'science'
p34
F0.0016061031921300944
sS'force'
p35
F0.0016061031921300944
sS'sign'
p36
F0.001003814495081309
sS'past'
p37
F0.0012045773940975708
sS'likely'
p38
F0.0014053402931138326
sS'cost'
p39
F0.0016061031921300944
sS'video'
p40
F0.0018068660911463562
sS'wife'
p41
F0.0014053402931138326
sS'run'
p42
F0.002007628990162618
sS'blue'
p43
F0.001003814495081309
sS'abc'
p44
F0.0012045773940975708
sS'appear'
p45
F0.0016061031921300944
sS'consumers'
p46
F0.0008030515960650472
sS'chicago'
p47
F0.0012045773940975708
sS'giving'
p48
F0.0008030515960650472
sS'sun'
p49
F0.0012045773940975708
sS'debate'
p50
F0.00220839188917888
sS'access'
p51
F0.0014053402931138326
sS'cheng'
p52
F0.0014053402931138326
sS'international'
p53
F0.001003814495081309
sS'learned'
p54
F0.0026099176872114035
sS'order'
p55
F0.0008030515960650472
sS'public'
p56
F0.005822124071471592
sS'movement'
p57
F0.001003814495081309
sS'full'
p58
F0.0008030515960650472
sS'led'
p59
F0.0016061031921300944
sS'muslim'
p60
F0.0014053402931138326
sS'hours'
p61
F0.007227464364585425
sS'met'
p62
F0.0018068660911463562
sS'iraq'
p63
F0.0008030515960650472
sS'change'
p64
F0.0002007628990162618
sS'unidentified'
p65
F0.0014053402931138326
sS'kids'
p66
F0.0024091547881951417
sS'canadian'
p67
F0.0004015257980325236
sS'receive'
p68
F0.0002007628990162618
sS'involved'
p69
F0.0014053402931138326
sS'study'
p70
F0.0016061031921300944
sS'reports'
p71
F0.0026099176872114035
sS'advertising'
p72
F0.0018068660911463562
sS'social'
p73
F0.0026099176872114035
sS'action'
p74
F0.0034129692832764505
sS'makes'
p75
F0.0008030515960650472
sS'love'
p76
F0.0016061031921300944
sS'family'
p77
F0.0036137321822927123
sS'private'
p78
F0.0012045773940975708
sS'highly'
p79
F0.0006022886970487854
sS'county'
p80
F0.0002007628990162618
sS'put'
p81
F0.0008030515960650472
sS'total'
p82
F0.00220839188917888
sS'post'
p83
F0.0006022886970487854
sS'market'
p84
F0.002007628990162618
sS'spoke'
p85
F0.001003814495081309
sS'usa'
p86
F0.0018068660911463562
sS'visit'
p87
F0.0004015257980325236
sS'charge'
p88
F0.0002007628990162618
sS'live'
p89
F0.005822124071471592
sS'camera'
p90
F0.002007628990162618
sS'call'
p91
F0.0008030515960650472
sS'films'
p92
F0.0016061031921300944
sS'minor'
p93
F0.0016061031921300944
sS'sort'
p94
F0.0018068660911463562
sS'sharing'
p95
F0.0002007628990162618
sS'door'
p96
F0.0016061031921300944
sS'rich'
p97
F0.0008030515960650472
sS'company'
p98
F0.0032122063842601888
sS'phone'
p99
F0.0014053402931138326
sS'baby'
p100
F0.001003814495081309
sS'women'
p101
F0.004617546677374022
sS'states'
p102
F0.0012045773940975708
sS'animals'
p103
F0.0004015257980325236
sS'room'
p104
F0.004818309576390283
sS'hour'
p105
F0.0024091547881951417
sS'car'
p106
F0.0002007628990162618
sS'soul'
p107
F0.0008030515960650472
sS'movies'
p108
F0.0056213611724553305
sS'making'
p109
F0.001003814495081309
sS'newspapers'
p110
F0.004818309576390283
sS'history'
p111
F0.0026099176872114035
sS'control'
p112
F0.0008030515960650472
sS'performer'
p113
F0.0016061031921300944
sS'household'
p114
F0.0002007628990162618
sS'share'
p115
F0.0014053402931138326
sS'high'
p116
F0.0024091547881951417
sS'numbers'
p117
F0.0002007628990162618
sS'want'
p118
F0.0014053402931138326
sS'sense'
p119
F0.0004015257980325236
sS'times'
p120
F0.0006022886970487854
sS'native'
p121
F0.0002007628990162618
sS'information'
p122
F0.0036137321822927123
sS'united'
p123
F0.0012045773940975708
sS'court'
p124
F0.0012045773940975708
sS'thing'
p125
F0.0006022886970487854
sS'means'
p126
F0.002007628990162618
sS'conducted'
p127
F0.0016061031921300944
sS'machine'
p128
F0.0016061031921300944
sS'interview'
p129
F0.0006022886970487854
sS'plans'
p130
F0.0014053402931138326
sS'beauty'
p131
F0.0004015257980325236
sS'watch'
p132
F0.008632804657699257
sS'southern'
p133
F0.0004015257980325236
sS'set_#1'
p134
F0.0004015257980325236
sS'lump'
p135
F0.0004015257980325236
sS'produce'
p136
F0.0002007628990162618
sS'coming'
p137
F0.00220839188917888
sS'watch_#-1'
p138
F0.002007628990162618
sS'end'
p139
F0.0008030515960650472
sS'law'
p140
F0.0026099176872114035
sS'noses'
p141
F0.0002007628990162618
sS'sets'
p142
F0.0008030515960650472
sS'maybe'
p143
F0.002007628990162618
sS'vegetables'
p144
F0.0012045773940975708
sS'chief'
p145
F0.0008030515960650472
sS'broadcasting'
p146
F0.002007628990162618
sS'truck'
p147
F0.0002007628990162618
sS'things'
p148
F0.00220839188917888
sS'playing'
p149
F0.001003814495081309
sS'talk'
p150
F0.0006022886970487854
sS'serving'
p151
F0.0002007628990162618
sS'produced'
p152
F0.002007628990162618
sS'held'
p153
F0.0012045773940975708
sS'including'
p154
F0.0024091547881951417
sS'hell'
p155
F0.001003814495081309
sS'cold'
p156
F0.0008030515960650472
sS'mayor'
p157
F0.0016061031921300944
sS'write'
p158
F0.0006022886970487854
sS'group'
p159
F0.0024091547881951417
sS'personal'
p160
F0.001003814495081309
sS'actually'
p161
F0.0034129692832764505
sS'late'
p162
F0.0006022886970487854
sS'production'
p163
F0.0006022886970487854
sS'choose'
p164
F0.0006022886970487854
sS'weeks'
p165
F0.0016061031921300944
sS'happened'
p166
F0.0002007628990162618
sS'dad'
p167
F0.0002007628990162618
sS'eventually'
p168
F0.0002007628990162618
sS'evening'
p169
F0.0024091547881951417
sS'ceo'
p170
F0.0004015257980325236
sS'nation'
p171
F0.0004015257980325236
sS'break'
p172
F0.001003814495081309
sS'try'
p173
F0.002007628990162618
sS'hands'
p174
F0.0006022886970487854
sS'front'
p175
F0.003814495081308974
sS'bank'
p176
F0.0008030515960650472
sS'mystery'
p177
F0.0014053402931138326
sS'term'
p178
F0.0004015257980325236
sS'university'
p179
F0.0018068660911463562
sS'television_#-3'
p180
F0.0016061031921300944
sS'found'
p181
F0.0012045773940975708
sS'mean'
p182
F0.001003814495081309
sS'financial'
p183
F0.0012045773940975708
sS'billion'
p184
F0.0018068660911463562
sS'voiceover'
p185
F0.001003814495081309
sS'house'
p186
F0.0028106805862276652
sS'hard'
p187
F0.0016061031921300944
sS'police'
p188
F0.003011443485243927
sS'books'
p189
F0.001003814495081309
sS'event'
p190
F0.002007628990162618
sS'leave'
p191
F0.001003814495081309
sS'shown'
p192
F0.0024091547881951417
sS'network'
p193
F0.005219835374422807
sS'entertainment'
p194
F0.0026099176872114035
sS'robert'
p195
F0.003814495081308974
sS'cameras'
p196
F0.0026099176872114035
sS'forty'
p197
F0.0008030515960650472
sS'research'
p198
F0.0002007628990162618
sS'content'
p199
F0.0008030515960650472
sS'daniel'
p200
F0.0002007628990162618
sS'internet'
p201
F0.0016061031921300944
sS'red'
p202
F0.0012045773940975708
sS'shows'
p203
F0.003814495081308974
sS'working'
p204
F0.0006022886970487854
sS'million'
p205
F0.0036137321822927123
sS'free'
p206
F0.0004015257980325236
sS'qualify'
p207
F0.0002007628990162618
sS'york'
p208
F0.004216020879341498
sS'members'
p209
F0.001003814495081309
sS'ask'
p210
F0.00220839188917888
sS'teach'
p211
F0.0008030515960650472
sS'wanted'
p212
F0.0014053402931138326
sS'producers'
p213
F0.0004015257980325236
sS'organic'
p214
F0.0002007628990162618
sS'days'
p215
F0.0014053402931138326
sS'david'
p216
F0.0028106805862276652
sS'festival'
p217
F0.0002007628990162618
sS'american'
p218
F0.0026099176872114035
sS'place'
p219
F0.002007628990162618
sS'think'
p220
F0.004216020879341498
sS'feed'
p221
F0.0004015257980325236
sS'major'
p222
F0.00220839188917888
sS'feel'
p223
F0.0006022886970487854
sS'number'
p224
F0.0002007628990162618
sS'owned'
p225
F0.002007628990162618
sS'channels'
p226
F0.0034129692832764505
sS'president'
p227
F0.004216020879341498
sS'ways'
p228
F0.001003814495081309
sS'open'
p229
F0.0012045773940975708
sS'george'
p230
F0.0006022886970487854
sS'city'
p231
F0.004617546677374022
sS'story'
p232
F0.0014053402931138326
sS'service'
p233
F0.0002007628990162618
sS'gourmet'
p234
F0.0004015257980325236
sS'leading'
p235
F0.0008030515960650472
sS'top'
p236
F0.001003814495081309
sS'system'
p237
F0.0014053402931138326
sS'attack'
p238
F0.0006022886970487854
sS'station'
p239
F0.004015257980325236
sS'white'
p240
F0.0012045773940975708
sS'john'
p241
F0.001003814495081309
sS'final'
p242
F0.0018068660911463562
sS'selling'
p243
F0.0008030515960650472
sS'stars'
p244
F0.00220839188917888
sS'season'
p245
F0.0014053402931138326
sS'park'
p246
F0.0002007628990162618
sS'took'
p247
F0.0016061031921300944
sS'broadcast'
p248
F0.004617546677374022
sS'released'
p249
F0.001003814495081309
sS'grace'
p250
F0.0006022886970487854
sS'remember'
p251
F0.0002007628990162618
sS'king'
p252
F0.005019072475406545
sS'kind'
p253
F0.0006022886970487854
sS'grew'
p254
F0.0004015257980325236
sS'tree'
p255
F0.0012045773940975708
sS'bed'
p256
F0.001003814495081309
sS'nations'
p257
F0.0006022886970487854
sS'cable_#-1'
p258
F0.0016061031921300944
sS'defense'
p259
F0.0014053402931138326
sS'light'
p260
F0.0002007628990162618
sS'providing'
p261
F0.0006022886970487854
sS'interactive'
p262
F0.001003814495081309
sS'tasted'
p263
F0.0004015257980325236
sS'modern'
p264
F0.0012045773940975708
sS'turned'
p265
F0.004617546677374022
sS'tonight'
p266
F0.0026099176872114035
sS'talking'
p267
F0.0024091547881951417
sS'need'
p268
F0.003011443485243927
sS'seen'
p269
F0.006022886970487854
sS'turn'
p270
F0.0026099176872114035
sS'saw'
p271
F0.003011443485243927
sS'sat'
p272
F0.0002007628990162618
sS'dishes'
p273
F0.0002007628990162618
sS'ideas'
p274
F0.002007628990162618
sS'concerns'
p275
F0.001003814495081309
sS'channel'
p276
F0.0018068660911463562
sS'play'
p277
F0.001003814495081309
sS'sure'
p278
F0.0014053402931138326
sS'knew'
p279
F0.0002007628990162618
sS'paid'
p280
F0.0016061031921300944
sS'services'
p281
F0.0008030515960650472
sS'america'
p282
F0.004617546677374022
sS'segment'
p283
F0.0008030515960650472
sS'stands'
p284
F0.0002007628990162618
sS'later'
p285
F0.00220839188917888
sS'face'
p286
F0.002007628990162618
sS'looked'
p287
F0.0032122063842601888
sS'federal'
p288
F0.0008030515960650472
sS'pictures'
p289
F0.0012045773940975708
sS'latest'
p290
F0.0016061031921300944
sS'fact'
p291
F0.0006022886970487854
sS'shop'
p292
F0.0002007628990162618
sS'rating'
p293
F0.0012045773940975708
sS'hunger'
p294
F0.0004015257980325236
sS'scattered'
p295
F0.001003814495081309
sS'bring'
p296
F0.0004015257980325236
sS'radio'
p297
F0.012045773940975708
sS'uniform'
p298
F0.0002007628990162618
sS'find'
p299
F0.0004015257980325236
sS'decade'
p300
F0.0012045773940975708
sS'situations'
p301
F0.0008030515960650472
sS'writer'
p302
F0.0018068660911463562
sS'bush'
p303
F0.0032122063842601888
sS'going'
p304
F0.0064244127685203775
sS'black'
p305
F0.0032122063842601888
sS'pretty'
p306
F0.0008030515960650472
sS'thompson'
p307
F0.0014053402931138326
sS'watching'
p308
F0.008632804657699257
sS'local'
p309
F0.00220839188917888
sS'hope'
p310
F0.0004015257980325236
sS'wearing'
p311
F0.0018068660911463562
sS'hit'
p312
F0.0026099176872114035
sS'cuba'
p313
F0.0012045773940975708
sS'familiar'
p314
F0.0006022886970487854
sS'stop'
p315
F0.0008030515960650472
sS'television'
p316
F0.06083115840192732
sS'words'
p317
F0.0004015257980325236
sS'reporters'
p318
F0.0012045773940975708
sS'report'
p319
F0.00220839188917888
sS'morning'
p320
F0.0032122063842601888
sS'bag'
p321
F0.0002007628990162618
sS'activity'
p322
F0.0012045773940975708
sS'told'
p323
F0.0008030515960650472
sS'husband'
p324
F0.0008030515960650472
sS'set'
p325
F0.0024091547881951417
sS'national'
p326
F0.0032122063842601888
sS'sex'
p327
F0.0002007628990162618
sS'culture'
p328
F0.002007628990162618
sS'decided'
p329
F0.0008030515960650472
sS'result'
p330
F0.0006022886970487854
sS'close'
p331
F0.002007628990162618
sS'yes'
p332
F0.0014053402931138326
sS'israeli'
p333
F0.0016061031921300944
sS'lots'
p334
F0.0006022886970487854
sS'movie'
p335
F0.0028106805862276652
sS'tend'
p336
F0.0004015257980325236
sS'fans'
p337
F0.0004015257980325236
sS'future'
p338
F0.0008030515960650472
sS'progress'
p339
F0.0018068660911463562
sS'problems'
p340
F0.0006022886970487854
sS'reading'
p341
F0.0012045773940975708
sS'wide'
p342
F0.0018068660911463562
sS'campaign'
p343
F0.0012045773940975708
sS'recently'
p344
F0.0006022886970487854
sS'screen'
p345
F0.0026099176872114035
sS'attention'
p346
F0.0012045773940975708
sS'blame'
p347
F0.0016061031921300944
sS'job'
p348
F0.0006022886970487854
sS'news'
p349
F0.007026701465569163
sS'improve'
p350
F0.0002007628990162618
sS'league'
p351
F0.0002007628990162618
sS'climate'
p352
F0.0002007628990162618
sS'country'
p353
F0.0018068660911463562
sS'taking'
p354
F0.00220839188917888
sS'according'
p355
F0.0002007628990162618
sS'foreign'
p356
F0.0012045773940975708
sS'figures'
p357
F0.0014053402931138326
sS'asked'
p358
F0.0016061031921300944
sS'nearby'
p359
F0.0002007628990162618
sS'point'
p360
F0.00220839188917888
sS'appeared'
p361
F0.0008030515960650472
sS'community'
p362
F0.0014053402931138326
sS'learning'
p363
F0.00220839188917888
sS'article'
p364
F0.0002007628990162618
sS'writing'
p365
F0.0016061031921300944
sS'expensive'
p366
F0.003011443485243927
sS'decline'
p367
F0.0014053402931138326
sS'union'
p368
F0.0014053402931138326
sS'taste'
p369
F0.0004015257980325236
sS'interest'
p370
F0.0016061031921300944
sS'kitchen'
p371
F0.0006022886970487854
sS'families'
p372
F0.0008030515960650472
sS'gas'
p373
F0.0014053402931138326
sS'child'
p374
F0.0002007628990162618
sS'general'
p375
F0.0024091547881951417
sS'present'
p376
F0.0016061031921300944
sS'case'
p377
F0.0002007628990162618
sS'homes'
p378
F0.0012045773940975708
sS'look'
p379
F0.0028106805862276652
sS'bill'
p380
F0.002007628990162618
sS'cash'
p381
F0.0004015257980325236
sS'teachers'
p382
F0.0004015257980325236
sS'newspaper'
p383
F0.0014053402931138326
sS'voice'
p384
F0.0018068660911463562
sS'stations_#1'
p385
F0.0018068660911463562
sS'watched_#-1'
p386
F0.0014053402931138326
sS'site'
p387
F0.0008030515960650472
sS'sleeping'
p388
F0.0006022886970487854
sS'middle'
p389
F0.0014053402931138326
sS'ready'
p390
F0.0014053402931138326
sS'seattle'
p391
F0.0006022886970487854
sS'technology'
p392
F0.0012045773940975708
sS'author'
p393
F0.0002007628990162618
sS'media'
p394
F0.006625175667536639
sS'began'
p395
F0.001003814495081309
sS'bowl'
p396
F0.0008030515960650472
sS'rules'
p397
F0.0008030515960650472
sS'party'
p398
F0.0014053402931138326
sS'week'
p399
F0.0024091547881951417
sS'independent'
p400
F0.0028106805862276652
sS'reporting'
p401
F0.0016061031921300944
sS'effect'
p402
F0.001003814495081309
sS'hand'
p403
F0.0018068660911463562
sS'director'
p404
F0.001003814495081309
sS'moment'
p405
F0.0012045773940975708
sS'frequently'
p406
F0.001003814495081309
sS'recent'
p407
F0.0026099176872114035
sS'dark'
p408
F0.0012045773940975708
sS'lower'
p409
F0.0002007628990162618
sS'center'
p410
F0.0036137321822927123
sS'programs'
p411
F0.006625175667536639
sS'studies'
p412
F0.0036137321822927123
sS'limbaugh'
p413
F0.003011443485243927
sS'thought'
p414
F0.0004015257980325236
sS'mother'
p415
F0.0018068660911463562
sS'spend'
p416
F0.0012045773940975708
sS'left'
p417
F0.001003814495081309
sS'summer'
p418
F0.0002007628990162618
sS'violence'
p419
F0.0016061031921300944
sS'increasingly'
p420
F0.0006022886970487854
sS'money'
p421
F0.0016061031921300944
sS'half'
p422
F0.0014053402931138326
sS'officers'
p423
F0.001003814495081309
sS'sources'
p424
F0.0004015257980325236
sS'paul'
p425
F0.0018068660911463562
sS'captured'
p426
F0.002007628990162618
sS'web'
p427
F0.001003814495081309
sS'ads'
p428
F0.0006022886970487854
sS'thinking'
p429
F0.0002007628990162618
sS'rose'
p430
F0.0002007628990162618
sS'supply'
p431
F0.0002007628990162618
sS'wall'
p432
F0.0002007628990162618
sS'potential'
p433
F0.0004015257980325236
sS'parents'
p434
F0.0036137321822927123
sS'presidential'
p435
F0.0002007628990162618
sS'real'
p436
F0.00220839188917888
sS'march'
p437
F0.0014053402931138326
sS'government'
p438
F0.002007628990162618
sS'read'
p439
F0.0026099176872114035
sS'big'
p440
F0.0028106805862276652
sS'early'
p441
F0.0006022886970487854
sS'game'
p442
F0.0018068660911463562
sS'show_#1'
p443
F0.0026099176872114035
sS'press'
p444
F0.002007628990162618
sS'projects'
p445
F0.0018068660911463562
sS'food_#-3'
p446
F0.0002007628990162618
sS'specific'
p447
F0.0006022886970487854
sS'michael'
p448
F0.0014053402931138326
sS'audience'
p449
F0.0016061031921300944
sS'night'
p450
F0.004617546677374022
sS'popular'
p451
F0.0026099176872114035
sS'served'
p452
F0.0004015257980325236
sS'deal'
p453
F0.0002007628990162618
sS'competition'
p454
F0.0004015257980325236
sS'hair'
p455
F0.0014053402931138326
sS'growth'
p456
F0.0002007628990162618
sS'images'
p457
F0.002007628990162618
sS'station_#1'
p458
F0.0014053402931138326
sS'communications'
p459
F0.001003814495081309
sS'fox'
p460
F0.0018068660911463562
sS'ice'
p461
F0.0002007628990162618
sS'critical'
p462
F0.0002007628990162618
sS'eating'
p463
F0.0004015257980325236
sS'business'
p464
F0.0006022886970487854
sS'news_#1'
p465
F0.003011443485243927
sS'marketing'
p466
F0.0006022886970487854
sS'lose'
p467
F0.0004015257980325236
sS'host'
p468
F0.0024091547881951417
sS'carol'
p469
F0.0008030515960650472
sS'central'
p470
F0.001003814495081309
sS'carried'
p471
F0.0004015257980325236
sS'stations'
p472
F0.0034129692832764505
sS'industry'
p473
F0.0004015257980325236
sS'months'
p474
F0.0012045773940975708
sS'favorite'
p475
F0.0006022886970487854
sS'drama'
p476
F0.0014053402931138326
sS'magazine'
p477
F0.0008030515960650472
sS'afternoon'
p478
F0.0012045773940975708
sS'act'
p479
F0.002007628990162618
sS'public_#-1'
p480
F0.0024091547881951417
sS'seeing'
p481
F0.0014053402931138326
sS'clinton'
p482
F0.0014053402931138326
sS'xyz'
p483
F0.09255169644649669
sS'washington'
p484
F0.0006022886970487854
sS'magazines'
p485
F0.0018068660911463562
sS'independent_#-1'
p486
F0.0016061031921300944
sS'computer'
p487
F0.0028106805862276652
sS'area'
p488
F0.0018068660911463562
sS'spending'
p489
F0.0024091547881951417
sS'housing'
p490
F0.0002007628990162618
sS'start'
p491
F0.0012045773940975708
sS'vendors'
p492
F0.0002007628990162618
sS'low'
p493
F0.0008030515960650472
sS'lot'
p494
F0.001003814495081309
sS'series'
p495
F0.004216020879341498
sS'biggest'
p496
F0.0002007628990162618
sS'music'
p497
F0.003011443485243927
sS'war'
p498
F0.001003814495081309
sS'building'
p499
F0.0008030515960650472
sS'buy'
p500
F0.0012045773940975708
sS'north'
p501
F0.001003814495081309
sS'boys'
p502
F0.0004015257980325236
sS'gore'
p503
F0.0018068660911463562
sS'approval'
p504
F0.0008030515960650472
sS'trying'
p505
F0.003011443485243927
sS'eat'
p506
F0.0002007628990162618
sS'buying'
p507
F0.0002007628990162618
sS'pull'
p508
F0.0002007628990162618
sS'rush'
p509
F0.0018068660911463562
sS'places'
p510
F0.0002007628990162618
sS'inside'
p511
F0.0004015257980325236
sS'official'
p512
F0.0008030515960650472
sS'economic'
p513
F0.0002007628990162618
sS'today'
p514
F0.004818309576390283
sS'called'
p515
F0.0032122063842601888
sS'camp'
p516
F0.0006022886970487854
sS'int'
p517
F0.0006022886970487854
sS'evidence'
p518
F0.001003814495081309
sS'watched'
p519
F0.0056213611724553305
sS'film'
p520
F0.0028106805862276652
sS'physical'
p521
F0.0004015257980325236
sS'radio_#-1'
p522
F0.00220839188917888
sS'variety'
p523
F0.0006022886970487854
sS'watching_#-1'
p524
F0.0018068660911463562
sS'percent'
p525
F0.0004015257980325236
sS'reality'
p526
F0.00441678377835776
sS'book'
p527
F0.002007628990162618
sS'sick'
p528
F0.0002007628990162618
sS'digital'
p529
F0.0012045773940975708
sS'games'
p530
F0.004015257980325236
sS'welcome'
p531
F0.0008030515960650472
sS'june'
p532
F0.002007628990162618
sS'includes'
p533
F0.0002007628990162618
sS'coverage'
p534
F0.0024091547881951417
sS'friends'
p535
F0.0002007628990162618
sS'meals'
p536
F0.0002007628990162618
sS'ago'
p537
F0.002007628990162618
sS'longer'
p538
F0.0012045773940975708
sS'vice'
p539
F0.0026099176872114035
sS'mass'
p540
F0.0016061031921300944
ssI2
(dp541
S'chain'
p542
F0.005707762557077625
sS'global'
p543
F0.00228310502283105
sS'focus'
p544
F0.00028538812785388126
sg6
F0.001997716894977169
sS'welfare'
p545
F0.0005707762557077625
sg8
F0.003139269406392694
sS'issues'
p546
F0.00228310502283105
sg10
F0.0008561643835616438
sg4
F0.0008561643835616438
sg16
F0.001141552511415525
sg17
F0.0005707762557077625
sS'safety'
p547
F0.005707762557077625
sg20
F0.00028538812785388126
sS'brown'
p548
F0.001997716894977169
sg21
F0.004280821917808219
sg22
F0.0028538812785388126
sg24
F0.001141552511415525
sg25
F0.0045662100456621
sS'tickets'
p549
F0.00028538812785388126
sS'entire'
p550
F0.001997716894977169
sg27
F0.001141552511415525
sg29
F0.0014269406392694063
sg32
F0.001141552511415525
sg33
F0.0048515981735159815
sg34
F0.0008561643835616438
sS'small'
p551
F0.00028538812785388126
sS'obesity'
p552
F0.00228310502283105
sS'pork'
p553
F0.0005707762557077625
sg35
F0.00028538812785388126
sS'crop'
p554
F0.0025684931506849314
sg37
F0.0025684931506849314
sS'affiliation'
p555
F0.0025684931506849314
sg39
F0.00028538812785388126
sS'chicken'
p556
F0.001141552511415525
sg43
F0.0017123287671232876
sg44
F0.00028538812785388126
sg45
F0.00028538812785388126
sg46
F0.0017123287671232876
sg48
F0.0014269406392694063
sS'cooking'
p557
F0.0017123287671232876
sS'availability'
p558
F0.00228310502283105
sg51
F0.0048515981735159815
sg54
F0.0005707762557077625
sg57
F0.001141552511415525
sg58
F0.003995433789954338
sg60
F0.00028538812785388126
sS'french'
p559
F0.00228310502283105
sS'water'
p560
F0.006563926940639269
sS'groups'
p561
F0.0008561643835616438
sS'strong'
p562
F0.0014269406392694063
sg64
F0.0025684931506849314
sS'healthy'
p563
F0.0017123287671232876
sS'items'
p564
F0.001141552511415525
sg70
F0.001141552511415525
sS'fergus'
p565
F0.00228310502283105
sS'airport'
p566
F0.00228310502283105
sS'products'
p567
F0.0048515981735159815
sg412
F0.0005707762557077625
sg77
F0.003424657534246575
sS'africa'
p568
F0.0028538812785388126
sg78
F0.00028538812785388126
sg79
F0.001997716894977169
sg80
F0.003139269406392694
sg82
F0.0008561643835616438
sg84
F0.0005707762557077625
sg85
F0.0005707762557077625
sg204
F0.0028538812785388126
sg87
F0.0017123287671232876
sg89
F0.001997716894977169
sg90
F0.0037100456621004564
sg91
F0.0025684931506849314
sS'crab'
p569
F0.00228310502283105
sS'markets'
p570
F0.0028538812785388126
sg514
F0.0014269406392694063
sg97
F0.0005707762557077625
sg98
F0.001997716894977169
sS'leonard'
p571
F0.0025684931506849314
sg99
F0.0005707762557077625
sg100
F0.0005707762557077625
sS'benefits'
p572
F0.0014269406392694063
sg101
F0.001141552511415525
sg102
F0.001997716894977169
sg103
F0.0008561643835616438
sg105
F0.00028538812785388126
sg106
F0.0008561643835616438
sS'soup'
p573
F0.001997716894977169
sS'growing'
p574
F0.0005707762557077625
sg109
F0.0008561643835616438
sS'administration_#2'
p575
F0.0028538812785388126
sg112
F0.0017123287671232876
sg419
F0.00028538812785388126
sS'figure'
p576
F0.0017123287671232876
sS'give'
p577
F0.001141552511415525
sg114
F0.001141552511415525
sg115
F0.0008561643835616438
sg116
F0.00684931506849315
sS'foods'
p578
F0.0017123287671232876
sg117
F0.0005707762557077625
sg118
F0.0045662100456621
sS'clothing'
p579
F0.0028538812785388126
sS'species'
p580
F0.003139269406392694
sg122
F0.00028538812785388126
sg123
F0.005422374429223744
sg139
F0.0005707762557077625
sS'winter'
p581
F0.001141552511415525
sS'provide'
p582
F0.00028538812785388126
sS'damage'
p583
F0.0025684931506849314
sg128
F0.00028538812785388126
sg129
F0.00228310502283105
sS'product'
p584
F0.0017123287671232876
sS'farm'
p585
F0.0037100456621004564
sg133
F0.0014269406392694063
sg135
F0.0017123287671232876
sg136
F0.00228310502283105
sg227
F0.0005707762557077625
sS'natural'
p586
F0.0014269406392694063
sg141
F0.00228310502283105
sg260
F0.0005707762557077625
sg145
F0.00028538812785388126
sg147
F0.0025684931506849314
sg148
F0.001997716894977169
sg149
F0.00028538812785388126
sS'wine'
p587
F0.0008561643835616438
sS'help'
p588
F0.0017123287671232876
sS'move'
p589
F0.00028538812785388126
sS'mission'
p590
F0.0017123287671232876
sS'safety_#1'
p591
F0.001997716894977169
sS'paper'
p592
F0.0028538812785388126
sg154
F0.003995433789954338
sg155
F0.0005707762557077625
sg156
F0.001141552511415525
sg159
F0.0005707762557077625
sg161
F0.0014269406392694063
sS'window'
p593
F0.0014269406392694063
sg163
F0.0028538812785388126
sg164
F0.0017123287671232876
sS'easier'
p594
F0.0017123287671232876
sg167
F0.0005707762557077625
sg168
F0.0008561643835616438
sg169
F0.0005707762557077625
sS'return'
p595
F0.0025684931506849314
sg170
F0.0005707762557077625
sS'safe'
p596
F0.00028538812785388126
sg171
F0.0025684931506849314
sg172
F0.0014269406392694063
sS'lunch'
p597
F0.0014269406392694063
sg174
F0.001997716894977169
sg175
F0.00028538812785388126
sS'chain_#1'
p598
F0.00228310502283105
sg176
F0.00028538812785388126
sg177
F0.0008561643835616438
sS'meat'
p599
F0.004280821917808219
sS'lucy'
p600
F0.0017123287671232876
sg181
F0.0017123287671232876
sS'meal'
p601
F0.003424657534246575
sS'bone'
p602
F0.00228310502283105
sg182
F0.0008561643835616438
sS'weight'
p603
F0.0025684931506849314
sg185
F0.0025684931506849314
sg186
F0.004280821917808219
sS'energy'
p604
F0.005422374429223744
sS'pantry'
p605
F0.003424657534246575
sg188
F0.0008561643835616438
sS'oil'
p606
F0.0017123287671232876
sS'agriculture'
p607
F0.004280821917808219
sg173
F0.001141552511415525
sg192
F0.0005707762557077625
sS'factors'
p608
F0.0028538812785388126
sS'god'
p609
F0.0025684931506849314
sg195
F0.0008561643835616438
sg196
F0.0005707762557077625
sS'washed'
p610
F0.00028538812785388126
sg198
F0.0008561643835616438
sS'increase'
p611
F0.001997716894977169
sS'investigation'
p612
F0.003139269406392694
sS'health'
p613
F0.007420091324200913
sg202
F0.0014269406392694063
sg203
F0.0005707762557077625
sg206
F0.0017123287671232876
sg212
F0.0005707762557077625
sg432
F0.00028538812785388126
sS'care'
p614
F0.001997716894977169
sS'ate'
p615
F0.0014269406392694063
sg214
F0.001997716894977169
sg233
F0.0045662100456621
sg216
F0.0025684931506849314
sg125
F0.0014269406392694063
sg218
F0.0005707762557077625
sg219
F0.0005707762557077625
sS'wright'
p616
F0.00228310502283105
sS'retail'
p617
F0.0025684931506849314
sg220
F0.0017123287671232876
sg221
F0.0017123287671232876
sS'industrial'
p618
F0.0017123287671232876
sS'usda'
p619
F0.00228310502283105
sg223
F0.00028538812785388126
sS'americans'
p620
F0.0028538812785388126
sS'cups'
p621
F0.0014269406392694063
sg229
F0.00028538812785388126
sg231
F0.0005707762557077625
sS'quality'
p622
F0.0037100456621004564
sg217
F0.001997716894977169
sg235
F0.0008561643835616438
sg236
F0.0005707762557077625
sg237
F0.0014269406392694063
sS'establishments'
p623
F0.0025684931506849314
sg240
F0.003139269406392694
sg241
F0.0028538812785388126
sS'nutrition'
p624
F0.003424657534246575
sg243
F0.0017123287671232876
sS'relationship'
p625
F0.0025684931506849314
sg246
F0.0005707762557077625
sg247
F0.001997716894977169
sS'environmental'
p626
F0.004280821917808219
sS'part'
p627
F0.0008561643835616438
sg250
F0.0014269406392694063
sS'population'
p628
F0.0037100456621004564
sg253
F0.0017123287671232876
sg254
F0.0014269406392694063
sg256
F0.0014269406392694063
sg257
F0.0014269406392694063
sg338
F0.00028538812785388126
sS'poisoning'
p629
F0.001997716894977169
sg261
F0.001141552511415525
sg262
F0.00028538812785388126
sg265
F0.0005707762557077625
sS'garfield'
p630
F0.001997716894977169
sg268
F0.006563926940639269
sg269
F0.0005707762557077625
sS'breakfast'
p631
F0.0017123287671232876
sS'seek'
p632
F0.0008561643835616438
sg272
F0.001141552511415525
sS'sell'
p633
F0.0008561643835616438
sg273
F0.001141552511415525
sS'bacteria'
p634
F0.0017123287671232876
sg275
F0.001141552511415525
sg277
F0.001141552511415525
sg278
F0.001141552511415525
sg280
F0.001997716894977169
sS'experiences'
p635
F0.001997716894977169
sS'eaten'
p636
F0.001997716894977169
sg282
F0.001997716894977169
sg283
F0.0017123287671232876
sg284
F0.001997716894977169
sS'especially'
p637
F0.001141552511415525
sS'considered'
p638
F0.0014269406392694063
sg285
F0.00228310502283105
sg287
F0.0005707762557077625
sg288
F0.00028538812785388126
sS'consumer'
p639
F0.0014269406392694063
sg291
F0.0025684931506849314
sg293
F0.0008561643835616438
sg294
F0.00028538812785388126
sg295
F0.00028538812785388126
sg296
F0.001141552511415525
sS'fear'
p640
F0.00228310502283105
sg298
F0.00028538812785388126
sg299
F0.0025684931506849314
sg300
F0.0014269406392694063
sS'staff'
p641
F0.0008561643835616438
sS'based'
p642
F0.0017123287671232876
sS'gulf'
p643
F0.0005707762557077625
sg301
F0.0008561643835616438
sg304
F0.0014269406392694063
sg305
F0.00028538812785388126
sg306
F0.00028538812785388126
sg309
F0.003995433789954338
sg312
F0.001141552511415525
sg313
F0.00028538812785388126
sg132
F0.0005707762557077625
sS'grocery'
p644
F0.0014269406392694063
sg318
F0.0005707762557077625
sS'areas'
p645
F0.0005707762557077625
sg320
F0.001141552511415525
sg321
F0.0017123287671232876
sS'bad'
p646
F0.0008561643835616438
sS'processed'
p647
F0.00228310502283105
sg322
F0.00028538812785388126
sg323
F0.0008561643835616438
sg324
F0.00028538812785388126
sg325
F0.0005707762557077625
sg327
F0.00028538812785388126
sS'lion'
p648
F0.0028538812785388126
sg487
F0.00028538812785388126
sg330
F0.00028538812785388126
sg331
F0.0025684931506849314
sS'activities'
p649
F0.0014269406392694063
sS'farmers'
p650
F0.004280821917808219
sg334
F0.0028538812785388126
sg335
F0.00028538812785388126
sg336
F0.0017123287671232876
sS'stamps'
p651
F0.0014269406392694063
sg339
F0.0014269406392694063
sS'toolong'
p652
F0.001141552511415525
sg344
F0.0014269406392694063
sS'creating'
p653
F0.0005707762557077625
sS'nature'
p654
F0.001997716894977169
sg346
F0.0008561643835616438
sS'joe'
p655
F0.00028538812785388126
sg504
F0.001141552511415525
sS'jon'
p656
F0.001997716894977169
sg350
F0.001997716894977169
sg352
F0.003139269406392694
sg353
F0.0008561643835616438
sS'region'
p657
F0.001141552511415525
sg355
F0.0017123287671232876
sS'drug'
p658
F0.007705479452054794
sg356
F0.00028538812785388126
sS'kitchens'
p659
F0.0025684931506849314
sg530
F0.0005707762557077625
sg358
F0.0017123287671232876
sS'comes'
p660
F0.0037100456621004564
sg359
F0.00028538812785388126
sg431
F0.0014269406392694063
sS'color'
p661
F0.0017123287671232876
sg362
F0.001141552511415525
sS'dietary'
p662
F0.0025684931506849314
sg349
F0.00028538812785388126
sS'table'
p663
F0.001997716894977169
sg365
F0.0008561643835616438
sg366
F0.0008561643835616438
sS'source'
p664
F0.0017123287671232876
sS'stamp'
p665
F0.0008561643835616438
sS'create'
p666
F0.001997716894977169
sg369
F0.00228310502283105
sS'beer'
p667
F0.0017123287671232876
sg371
F0.003424657534246575
sg373
F0.0014269406392694063
sS'prices'
p668
F0.005422374429223744
sS'worked'
p669
F0.0008561643835616438
sg518
F0.001141552511415525
sg376
F0.0008561643835616438
sg377
F0.0008561643835616438
sg381
F0.0017123287671232876
sg68
F0.00228310502283105
sg382
F0.001141552511415525
sg383
F0.00028538812785388126
sS'aid'
p670
F0.003995433789954338
sg354
F0.0005707762557077625
sg387
F0.0008561643835616438
sg388
F0.0017123287671232876
sg391
F0.001141552511415525
sg392
F0.00028538812785388126
sS'grown'
p671
F0.003139269406392694
sg398
F0.00028538812785388126
sg393
F0.007134703196347032
sS'pay'
p672
F0.00228310502283105
sg395
F0.0017123287671232876
sS'administration'
p673
F0.006563926940639269
sS'food'
p674
F0.09988584474885845
sS'largest'
p675
F0.001141552511415525
sS'plates'
p676
F0.001997716894977169
sS'higher'
p677
F0.0037100456621004564
sg400
F0.00028538812785388126
sS'food_#3'
p678
F0.005422374429223744
sS'food_#2'
p679
F0.0017123287671232876
sS'drink'
p680
F0.001141552511415525
sS'overweight'
p681
F0.00228310502283105
sg402
F0.0017123287671232876
sg213
F0.0008561643835616438
sg406
F0.00028538812785388126
sg409
F0.0005707762557077625
sg411
F0.0028538812785388126
sg397
F0.001997716894977169
sS'spent'
p682
F0.004280821917808219
sg414
F0.004280821917808219
sS'person'
p683
F0.0028538812785388126
sS'practices'
p684
F0.00228310502283105
sS'residuals'
p685
F0.0028538812785388126
sS'organization'
p686
F0.00228310502283105
sg416
F0.00028538812785388126
sg418
F0.003139269406392694
sg420
F0.003424657534246575
sS'networks'
p687
F0.001997716894977169
sg424
F0.001997716894977169
sS'human'
p688
F0.001997716894977169
sS'alternative'
p689
F0.0017123287671232876
sS'sidebar'
p690
F0.00028538812785388126
sg427
F0.0028538812785388126
sS'workers'
p691
F0.001141552511415525
sg251
F0.0005707762557077625
sg361
F0.00028538812785388126
sg527
F0.00028538812785388126
sS'easy'
p692
F0.0014269406392694063
sg438
F0.00228310502283105
sg439
F0.0008561643835616438
sg408
F0.0005707762557077625
sg445
F0.0008561643835616438
sS'brought'
p693
F0.0005707762557077625
sg446
F0.0048515981735159815
sS'food_#-2'
p694
F0.0008561643835616438
sg447
F0.0014269406392694063
sg448
F0.00028538812785388126
sg450
F0.00028538812785388126
sg452
F0.0045662100456621
sS'security'
p695
F0.004280821917808219
sg454
F0.0017123287671232876
sg455
F0.00028538812785388126
sg456
F0.0014269406392694063
sS'home'
p696
F0.008276255707762557
sS'pet'
p697
F0.0017123287671232876
sg462
F0.0017123287671232876
sg463
F0.007990867579908675
sg467
F0.00028538812785388126
sg469
F0.00028538812785388126
sS'prepared'
p698
F0.004280821917808219
sg470
F0.0008561643835616438
sg473
F0.003139269406392694
sg474
F0.00028538812785388126
sg475
F0.001997716894977169
sg477
F0.0008561643835616438
sS'drug_#1'
p699
F0.0028538812785388126
sg479
F0.00028538812785388126
sg228
F0.00028538812785388126
sS'colorado'
p700
F0.0037100456621004564
sg483
F0.07505707762557078
sg484
F0.0017123287671232876
sS'weekend'
p701
F0.003139269406392694
sS'fast'
p702
F0.0005707762557077625
sg492
F0.001997716894977169
sg493
F0.00028538812785388126
sg494
F0.0045662100456621
sg496
F0.001997716894977169
sg497
F0.0028538812785388126
sg184
F0.0017123287671232876
sS'head'
p703
F0.0005707762557077625
sg500
F0.0059931506849315065
sg501
F0.0025684931506849314
sS'form'
p704
F0.001997716894977169
sg502
F0.001997716894977169
sg505
F0.001997716894977169
sg506
F0.007705479452054794
sg507
F0.00228310502283105
sg509
F0.00028538812785388126
sS'october'
p705
F0.0014269406392694063
sg510
F0.0045662100456621
sg512
F0.00028538812785388126
sS'dirty'
p706
F0.00228310502283105
sS'fried'
p707
F0.00028538812785388126
sg515
F0.0008561643835616438
sg517
F0.0017123287671232876
sg375
F0.00028538812785388126
sS'single'
p708
F0.00028538812785388126
sS'politics'
p709
F0.00028538812785388126
sg523
F0.0005707762557077625
sg525
F0.0017123287671232876
sS'interested'
p710
F0.0025684931506849314
sg528
F0.0037100456621004564
sS'poor'
p711
F0.0025684931506849314
sg340
F0.0008561643835616438
sg533
F0.0005707762557077625
sS'important'
p712
F0.00228310502283105
sg535
F0.00228310502283105
sg537
F0.0014269406392694063
sg538
F0.00028538812785388126
sg41
F0.0008561643835616438
sS'cooked'
p713
F0.005422374429223744
sS'beverage'
p714
F0.0005707762557077625
sS'fresh'
p715
F0.0028538812785388126
ssI3
(dp716
g2
F0.0009433962264150943
sg3
F0.002830188679245283
sg4
F0.0012578616352201257
sg543
F0.0006289308176100629
sg544
F0.00220125786163522
sg6
F0.0015723270440251573
sg100
F0.0012578616352201257
sg545
F0.0012578616352201257
sg8
F0.00220125786163522
sg9
F0.0009433962264150943
sg10
F0.00031446540880503143
sg11
F0.00220125786163522
sg12
F0.0006289308176100629
sg13
F0.0006289308176100629
sg14
F0.0009433962264150943
sg88
F0.0025157232704402514
sg17
F0.0031446540880503146
sg18
F0.0025157232704402514
sg20
F0.0015723270440251573
sg548
F0.0006289308176100629
sg21
F0.0012578616352201257
sg22
F0.0006289308176100629
sg23
F0.0009433962264150943
sS'stamps_#1'
p717
F0.0006289308176100629
sg25
F0.00031446540880503143
sg632
F0.0006289308176100629
sg26
F0.0015723270440251573
sg549
F0.002830188679245283
sg27
F0.0006289308176100629
sg31
F0.00220125786163522
sg15
F0.0006289308176100629
sg33
F0.0006289308176100629
sg551
F0.009748427672955974
sS'clothes'
p718
F0.0037735849056603774
sg553
F0.0018867924528301887
sg35
F0.0006289308176100629
sg36
F0.00220125786163522
sS'chef'
p719
F0.0031446540880503146
sg38
F0.0012578616352201257
sg39
F0.00031446540880503143
sg42
F0.0006289308176100629
sg634
F0.0006289308176100629
sg44
F0.00031446540880503143
sg284
F0.0006289308176100629
sg47
F0.00031446540880503143
sg49
F0.00031446540880503143
sg271
F0.00031446540880503143
sg557
F0.0012578616352201257
sg298
F0.0018867924528301887
sg51
F0.00031446540880503143
sS'attitudes'
p720
F0.0012578616352201257
sg53
F0.0012578616352201257
sg54
F0.0009433962264150943
sg323
F0.0018867924528301887
sg58
F0.0009433962264150943
sg560
F0.0047169811320754715
sg62
F0.0009433962264150943
sg561
F0.002830188679245283
sg63
F0.0012578616352201257
sg64
F0.0006289308176100629
sS'dry'
p721
F0.0025157232704402514
sg65
F0.0006289308176100629
sg66
F0.0025157232704402514
sg563
F0.0006289308176100629
sg564
F0.0012578616352201257
sg123
F0.00031446540880503143
sS'healthier'
p722
F0.0031446540880503146
sg73
F0.0006289308176100629
sg75
F0.00220125786163522
sS'options'
p723
F0.002830188679245283
sg76
F0.003459119496855346
sg77
F0.00440251572327044
sg693
F0.0047169811320754715
sg81
F0.005031446540880503
sS'decrease'
p724
F0.0025157232704402514
sS'meats'
p725
F0.0031446540880503146
sg85
F0.0006289308176100629
sg204
F0.0015723270440251573
sg89
F0.0009433962264150943
sg90
F0.00220125786163522
sg92
F0.00031446540880503143
sS'tell'
p726
F0.0037735849056603774
sg94
F0.0009433962264150943
sg95
F0.00220125786163522
sg97
F0.0009433962264150943
sS'warm'
p727
F0.0018867924528301887
sg7
F0.0018867924528301887
sg101
F0.0012578616352201257
sg102
F0.0018867924528301887
sS'keeping'
p728
F0.002830188679245283
sg103
F0.0009433962264150943
sg104
F0.0015723270440251573
sg105
F0.0015723270440251573
sg106
F0.00031446540880503143
sg107
F0.0031446540880503146
sg573
F0.0012578616352201257
sg109
F0.003459119496855346
sg110
F0.0009433962264150943
sg111
F0.0009433962264150943
sg112
F0.0006289308176100629
sg474
F0.0025157232704402514
sg576
F0.0015723270440251573
sg577
F0.0025157232704402514
sg116
F0.0018867924528301887
sg578
F0.00440251572327044
sg117
F0.002830188679245283
sg118
F0.0006289308176100629
sg119
F0.0025157232704402514
sg579
F0.00031446540880503143
sg580
F0.00031446540880503143
sg121
F0.00220125786163522
sg122
F0.00220125786163522
sS'needs'
p729
F0.00440251572327044
sg391
F0.00031446540880503143
sg124
F0.0015723270440251573
sg125
F0.00440251572327044
sg582
F0.0018867924528301887
sg308
F0.00031446540880503143
sg583
F0.00031446540880503143
sg128
F0.00031446540880503143
sg129
F0.0006289308176100629
sg130
F0.00031446540880503143
sg131
F0.00031446540880503143
sg133
F0.00031446540880503143
sg134
F0.0018867924528301887
sg136
F0.00031446540880503143
sg137
F0.0012578616352201257
sg139
F0.00220125786163522
sg586
F0.0009433962264150943
sg251
F0.0015723270440251573
sg143
F0.0006289308176100629
sg144
F0.0012578616352201257
sg145
F0.00031446540880503143
sg146
F0.00031446540880503143
sg147
F0.0012578616352201257
sS'south'
p730
F0.0006289308176100629
sg394
F0.0006289308176100629
sg611
F0.00031446540880503143
sg149
F0.0009433962264150943
sg150
F0.0006289308176100629
sg587
F0.0015723270440251573
sg151
F0.003459119496855346
sg588
F0.005660377358490566
sg589
F0.0031446540880503146
sg590
F0.0006289308176100629
sg152
F0.0012578616352201257
sg153
F0.0015723270440251573
sg592
F0.0006289308176100629
sg154
F0.0006289308176100629
sg155
F0.00031446540880503143
sg158
F0.0018867924528301887
sS'style'
p731
F0.00220125786163522
sg159
F0.0018867924528301887
sg160
F0.0006289308176100629
sg594
F0.00220125786163522
sg166
F0.0015723270440251573
sg167
F0.002830188679245283
sg168
F0.0012578616352201257
sg169
F0.00031446540880503143
sg170
F0.0012578616352201257
sg596
F0.002830188679245283
sg171
F0.0015723270440251573
sg172
F0.004088050314465409
sg597
F0.0012578616352201257
sg174
F0.0006289308176100629
sg175
F0.0018867924528301887
sg176
F0.002830188679245283
sg178
F0.0018867924528301887
sg600
F0.0006289308176100629
sg181
F0.006289308176100629
sg601
F0.00220125786163522
sg182
F0.0006289308176100629
sS'heavy'
p732
F0.00440251572327044
sg183
F0.0006289308176100629
sg603
F0.0018867924528301887
sg448
F0.0025157232704402514
sg604
F0.00031446540880503143
sS'idea'
p733
F0.002830188679245283
sg605
F0.0009433962264150943
sg679
F0.0012578616352201257
sg607
F0.00031446540880503143
sg191
F0.0025157232704402514
sg193
F0.0012578616352201257
sg608
F0.00031446540880503143
sg609
F0.0012578616352201257
sg196
F0.00031446540880503143
sg610
F0.00220125786163522
sg198
F0.0015723270440251573
sg199
F0.0009433962264150943
sg200
F0.00220125786163522
sg613
F0.0018867924528301887
sg201
F0.0006289308176100629
sg202
F0.0006289308176100629
sg205
F0.0025157232704402514
sg206
F0.0037735849056603774
sg207
F0.003459119496855346
sg208
F0.0012578616352201257
sg209
F0.0006289308176100629
sg210
F0.00031446540880503143
sg211
F0.0015723270440251573
sg212
F0.0006289308176100629
sg432
F0.0015723270440251573
sg614
F0.0018867924528301887
sg615
F0.0018867924528301887
sg572
F0.00220125786163522
sg233
F0.00220125786163522
sg215
F0.006918238993710692
sg120
F0.0037735849056603774
sg217
F0.00031446540880503143
sg218
F0.005345911949685534
sg219
F0.0009433962264150943
sg220
F0.005345911949685534
sS'fast_#-1'
p734
F0.002830188679245283
sg221
F0.0006289308176100629
sg222
F0.00031446540880503143
sg618
F0.00220125786163522
sg223
F0.0009433962264150943
sg225
F0.0006289308176100629
sg620
F0.0012578616352201257
sg621
F0.002830188679245283
sg622
F0.00031446540880503143
sg230
F0.0015723270440251573
sg232
F0.00220125786163522
sg649
F0.00220125786163522
sg234
F0.0018867924528301887
sg235
F0.0006289308176100629
sg236
F0.0009433962264150943
sg237
F0.0031446540880503146
sg238
F0.0012578616352201257
sg240
F0.0006289308176100629
sg243
F0.0006289308176100629
sg244
F0.00031446540880503143
sg245
F0.0006289308176100629
sg246
F0.00220125786163522
sg247
F0.006289308176100629
sg249
F0.0015723270440251573
sg627
F0.007861635220125786
sg37
F0.00031446540880503143
sg253
F0.0018867924528301887
sg254
F0.0006289308176100629
sg255
F0.0006289308176100629
sg257
F0.00031446540880503143
sg487
F0.0012578616352201257
sg260
F0.00220125786163522
sg261
F0.0006289308176100629
sg263
F0.0025157232704402514
sg264
F0.0006289308176100629
sg267
F0.0025157232704402514
sg630
F0.0006289308176100629
sg631
F0.0006289308176100629
sg270
F0.0012578616352201257
sS'apparently'
p735
F0.0031446540880503146
sg272
F0.0025157232704402514
sg273
F0.00220125786163522
sg423
F0.0012578616352201257
sg433
F0.0015723270440251573
sg277
F0.00220125786163522
sg279
F0.0025157232704402514
sg636
F0.0012578616352201257
sg281
F0.0012578616352201257
sg637
F0.0012578616352201257
sg638
F0.0009433962264150943
sg516
F0.0018867924528301887
sS'hungry'
p736
F0.003459119496855346
sg55
F0.0015723270440251573
sg287
F0.0012578616352201257
sg228
F0.0012578616352201257
sg335
F0.0018867924528301887
sg292
F0.00220125786163522
sg294
F0.0018867924528301887
sg295
F0.0006289308176100629
sg296
F0.002830188679245283
sg297
F0.00031446540880503143
sg556
F0.0012578616352201257
sg299
F0.0018867924528301887
sg641
F0.0015723270440251573
sg642
F0.002830188679245283
sg643
F0.0006289308176100629
sg301
F0.0012578616352201257
sg302
F0.0006289308176100629
sg651
F0.0006289308176100629
sg303
F0.00031446540880503143
sg304
F0.006289308176100629
sg306
F0.00031446540880503143
sg309
F0.003459119496855346
sg310
F0.0018867924528301887
sg312
F0.0009433962264150943
sg126
F0.00031446540880503143
sg314
F0.0018867924528301887
sg315
F0.0037735849056603774
sg644
F0.0015723270440251573
sS'nearly'
p737
F0.002830188679245283
sg317
F0.004088050314465409
sg318
F0.0012578616352201257
sg645
F0.00440251572327044
sg320
F0.00031446540880503143
sg321
F0.00031446540880503143
sg647
F0.00220125786163522
sg322
F0.0015723270440251573
sg324
F0.00220125786163522
sS'restaurants'
p738
F0.002830188679245283
sg325
F0.004088050314465409
sg327
F0.0037735849056603774
sg328
F0.0006289308176100629
sg329
F0.0025157232704402514
sg330
F0.0012578616352201257
sg332
F0.0018867924528301887
sg288
F0.0012578616352201257
sg289
F0.0015723270440251573
sg336
F0.00031446540880503143
sg337
F0.0025157232704402514
sg338
F0.0015723270440251573
sg341
F0.00031446540880503143
sS'bought'
p739
F0.00220125786163522
sg652
F0.0009433962264150943
sg344
F0.0009433962264150943
sg653
F0.0006289308176100629
sg345
F0.00031446540880503143
sg348
F0.0018867924528301887
sg655
F0.003459119496855346
sg364
F0.0031446540880503146
sg371
F0.002830188679245283
sg259
F0.0012578616352201257
sS'restaurant'
p740
F0.007861635220125786
sg353
F0.0006289308176100629
sg354
F0.003459119496855346
sg355
F0.00031446540880503143
sg515
F0.00031446540880503143
sg357
F0.0006289308176100629
sg660
F0.0015723270440251573
sg359
F0.0025157232704402514
sg431
F0.005345911949685534
sg661
F0.0015723270440251573
sg362
F0.0015723270440251573
sg663
F0.005345911949685534
sg367
F0.00031446540880503143
sg664
F0.0018867924528301887
sg665
F0.0015723270440251573
sg666
F0.0006289308176100629
sg667
F0.0012578616352201257
sS'basic'
p741
F0.0018867924528301887
sg372
F0.0012578616352201257
sg373
F0.0006289308176100629
sg374
F0.0037735849056603774
sg668
F0.00031446540880503143
sg377
F0.002830188679245283
sg378
F0.0015723270440251573
sS'grains'
p742
F0.0031446540880503146
sg380
F0.0006289308176100629
sg382
F0.00031446540880503143
sg69
F0.0006289308176100629
sg387
F0.00031446540880503143
sg389
F0.0006289308176100629
sg356
F0.0009433962264150943
sg398
F0.003459119496855346
sg229
F0.0009433962264150943
sg672
F0.00220125786163522
sg396
F0.0009433962264150943
sg674
F0.06415094339622641
sg675
F0.00031446540880503143
sg676
F0.00031446540880503143
sg677
F0.00031446540880503143
sg399
F0.006289308176100629
sg678
F0.0009433962264150943
sg606
F0.0025157232704402514
sg680
F0.00220125786163522
sg402
F0.00031446540880503143
sg403
F0.0015723270440251573
sg404
F0.0009433962264150943
sg406
F0.00031446540880503143
sg407
F0.0018867924528301887
sg409
F0.0018867924528301887
sg410
F0.0006289308176100629
sg173
F0.002830188679245283
sg683
F0.00220125786163522
sg415
F0.00440251572327044
sg686
F0.00031446540880503143
sg416
F0.0015723270440251573
sg417
F0.0031446540880503146
sg148
F0.0006289308176100629
sg420
F0.00031446540880503143
sg421
F0.005031446540880503
sg422
F0.0031446540880503146
sg688
F0.0009433962264150943
sg689
F0.0006289308176100629
sg690
F0.002830188679245283
sg426
F0.00031446540880503143
sg427
F0.0015723270440251573
sS'cut'
p743
F0.00220125786163522
sg429
F0.0037735849056603774
sg430
F0.0006289308176100629
sg691
F0.0018867924528301887
sS'smith'
p744
F0.0018867924528301887
sg361
F0.0012578616352201257
sS'add'
p745
F0.00220125786163522
sg434
F0.0006289308176100629
sg692
F0.0009433962264150943
sg436
F0.0006289308176100629
sg439
F0.0012578616352201257
sg442
F0.00220125786163522
sS'furniture'
p746
F0.0018867924528301887
sg446
F0.0012578616352201257
sg694
F0.0018867924528301887
sg459
F0.00031446540880503143
sg467
F0.0015723270440251573
sg695
F0.00220125786163522
sS'works'
p747
F0.0009433962264150943
sS'italian'
p748
F0.005660377358490566
sg453
F0.0009433962264150943
sg513
F0.0018867924528301887
sg696
F0.00031446540880503143
sg458
F0.00031446540880503143
sg697
F0.0009433962264150943
sg461
F0.002830188679245283
sg462
F0.0006289308176100629
sg463
F0.005974842767295598
sg464
F0.0015723270440251573
sS'remembered'
p749
F0.0025157232704402514
sg466
F0.0015723270440251573
sg469
F0.0015723270440251573
sg471
F0.0018867924528301887
sg473
F0.0015723270440251573
sS'citizens'
p750
F0.00031446540880503143
sg475
F0.00031446540880503143
sg368
F0.0006289308176100629
sS'dinner'
p751
F0.00220125786163522
sg478
F0.0018867924528301887
sg699
F0.00031446540880503143
sg479
F0.00031446540880503143
sg481
F0.00031446540880503143
sg482
F0.00031446540880503143
sg483
F0.10534591194968554
sg485
F0.0006289308176100629
sS'female'
p752
F0.002830188679245283
sg488
F0.00031446540880503143
sg489
F0.00031446540880503143
sg490
F0.0047169811320754715
sg702
F0.007861635220125786
sg491
F0.003459119496855346
sg493
F0.0012578616352201257
sg494
F0.0031446540880503146
sg495
F0.00220125786163522
sg499
F0.0031446540880503146
sg703
F0.0031446540880503146
sg500
F0.0012578616352201257
sS'gluten'
p753
F0.0025157232704402514
sg704
F0.002830188679245283
sg502
F0.00031446540880503143
sg505
F0.00031446540880503143
sg506
F0.012578616352201259
sg507
F0.0012578616352201257
sg508
F0.0018867924528301887
sg705
F0.0006289308176100629
sg511
F0.0018867924528301887
sg456
F0.00031446540880503143
sg707
F0.002830188679245283
sS'agree'
p754
F0.0006289308176100629
sg708
F0.002830188679245283
sg709
F0.0018867924528301887
sg521
F0.0018867924528301887
sg523
F0.0006289308176100629
sg524
F0.00031446540880503143
sg525
F0.002830188679245283
sg527
F0.00220125786163522
sg529
F0.00031446540880503143
sg530
F0.00031446540880503143
sS'shelter'
p755
F0.0031446540880503146
sg531
F0.0009433962264150943
sg340
F0.00031446540880503143
sg533
F0.0025157232704402514
sg712
F0.0012578616352201257
sg535
F0.0012578616352201257
sg536
F0.0031446540880503146
sg184
F0.0006289308176100629
sg538
F0.0015723270440251573
sg194
F0.0009433962264150943
sg714
F0.00220125786163522
sg715
F0.002830188679245283
ssI4
(dp756
g2
F0.0020964360587002098
sg588
F0.005241090146750524
sg4
F0.0041928721174004195
sg419
F0.0010482180293501049
sS'september'
p757
F0.008385744234800839
sg421
F0.0010482180293501049
sg174
F0.0010482180293501049
sg299
F0.0041928721174004195
sg13
F0.0031446540880503146
sg136
F0.0010482180293501049
sg6
F0.007337526205450734
sg591
F0.0041928721174004195
sg424
F0.0010482180293501049
sg592
F0.0010482180293501049
sg154
F0.0010482180293501049
sg545
F0.0041928721174004195
sg150
F0.008385744234800839
sg640
F0.0020964360587002098
sg690
F0.0020964360587002098
sg8
F0.0020964360587002098
sg546
F0.011530398322851153
sg477
F0.0010482180293501049
sg611
F0.0010482180293501049
sg10
F0.0041928721174004195
sg743
F0.0010482180293501049
sg642
F0.0010482180293501049
sg428
F0.006289308176100629
sg643
F0.0041928721174004195
sg160
F0.005241090146750524
sg430
F0.005241090146750524
sg593
F0.0031446540880503146
sg525
F0.0010482180293501049
sg744
F0.0041928721174004195
sg651
F0.007337526205450734
sg161
F0.0010482180293501049
sg162
F0.006289308176100629
sg223
F0.0031446540880503146
sg745
F0.0010482180293501049
sg275
F0.0010482180293501049
sg261
F0.0020964360587002098
sg445
F0.0010482180293501049
sg306
F0.0020964360587002098
sg307
F0.0020964360587002098
sg547
F0.007337526205450734
sg309
F0.0010482180293501049
sg310
F0.006289308176100629
sg166
F0.0041928721174004195
sg436
F0.007337526205450734
sg386
F0.0020964360587002098
sg589
F0.0031446540880503146
sg437
F0.0010482180293501049
sg23
F0.0020964360587002098
sg717
F0.006289308176100629
sg313
F0.0010482180293501049
sg314
F0.0010482180293501049
sg456
F0.0020964360587002098
sg316
F0.014675052410901468
sg171
F0.0031446540880503146
sg172
F0.0010482180293501049
sg212
F0.0010482180293501049
sg737
F0.0031446540880503146
sg422
F0.005241090146750524
sg444
F0.0010482180293501049
sg435
F0.010482180293501049
sg746
F0.0041928721174004195
sg550
F0.0020964360587002098
sg178
F0.0020964360587002098
sg323
F0.0031446540880503146
sg567
F0.0010482180293501049
sg30
F0.006289308176100629
sg632
F0.0031446540880503146
sg697
F0.0010482180293501049
sg15
F0.0041928721174004195
sg443
F0.0010482180293501049
sg447
F0.0010482180293501049
sg459
F0.0020964360587002098
sg646
F0.005241090146750524
sg34
F0.0010482180293501049
sg551
F0.0020964360587002098
sg552
F0.0010482180293501049
sg203
F0.006289308176100629
sg601
F0.005241090146750524
sg718
F0.0010482180293501049
sg325
F0.0031446540880503146
sg453
F0.007337526205450734
sg495
F0.0020964360587002098
sg326
F0.0041928721174004195
sg187
F0.008385744234800839
sg519
F0.005241090146750524
sg584
F0.0020964360587002098
sg328
F0.0010482180293501049
sg38
F0.0010482180293501049
sg39
F0.0010482180293501049
sg40
F0.0020964360587002098
sg523
F0.0010482180293501049
sg457
F0.0031446540880503146
sg331
F0.0020964360587002098
sg190
F0.0031446540880503146
sS'concern'
p758
F0.010482180293501049
sg180
F0.0010482180293501049
sg44
F0.0010482180293501049
sg433
F0.0010482180293501049
sg45
F0.0010482180293501049
sg47
F0.0010482180293501049
sg288
F0.0010482180293501049
sg335
F0.0010482180293501049
sg197
F0.0041928721174004195
sg461
F0.0010482180293501049
sg50
F0.0010482180293501049
sg199
F0.0010482180293501049
sg337
F0.0010482180293501049
sg462
F0.0020964360587002098
sg720
F0.005241090146750524
sg201
F0.0020964360587002098
sg392
F0.0010482180293501049
sg341
F0.0010482180293501049
sg669
F0.005241090146750524
sg56
F0.008385744234800839
sg739
F0.0020964360587002098
sg652
F0.0041928721174004195
sg42
F0.0020964360587002098
sg653
F0.0041928721174004195
sg464
F0.0020964360587002098
sg654
F0.0010482180293501049
sg345
F0.0010482180293501049
sg205
F0.005241090146750524
sg232
F0.0020964360587002098
sg383
F0.0010482180293501049
sg240
F0.0020964360587002098
sg561
F0.006289308176100629
sg629
F0.0010482180293501049
sg81
F0.0031446540880503146
sg188
F0.0010482180293501049
sg83
F0.005241090146750524
sg698
F0.0020964360587002098
sg64
F0.0010482180293501049
sg508
F0.0031446540880503146
sg351
F0.008385744234800839
sg352
F0.0010482180293501049
sg66
F0.0020964360587002098
sg572
F0.0010482180293501049
sg67
F0.007337526205450734
sg563
F0.0020964360587002098
sg353
F0.008385744234800839
sg657
F0.0041928721174004195
sg750
F0.008385744234800839
sg355
F0.008385744234800839
sg71
F0.0010482180293501049
sg476
F0.005241090146750524
sg78
F0.0010482180293501049
sg751
F0.0010482180293501049
sg659
F0.0010482180293501049
sg513
F0.0020964360587002098
sg72
F0.0010482180293501049
sg480
F0.0010482180293501049
sg748
F0.0010482180293501049
sg660
F0.0020964360587002098
sg481
F0.006289308176100629
sg222
F0.0010482180293501049
sg618
F0.0031446540880503146
sg76
F0.0010482180293501049
sg700
F0.0020964360587002098
sg343
F0.008385744234800839
sg361
F0.0041928721174004195
sg483
F0.06813417190775681
sS'sudan'
p759
F0.008385744234800839
sg484
F0.0041928721174004195
sg224
F0.0220125786163522
sg362
F0.005241090146750524
sg676
F0.0031446540880503146
sg226
F0.0010482180293501049
sg163
F0.0041928721174004195
sg687
F0.0010482180293501049
sg724
F0.0010482180293501049
sg663
F0.0010482180293501049
sg82
F0.0010482180293501049
sg229
F0.0020964360587002098
sg211
F0.0020964360587002098
sg367
F0.0010482180293501049
sg16
F0.0041928721174004195
sg562
F0.0031446540880503146
sS'officials'
p760
F0.014675052410901468
sg603
F0.0010482180293501049
sg747
F0.009433962264150943
sg489
F0.0020964360587002098
sg235
F0.0010482180293501049
sg238
F0.0010482180293501049
sg369
F0.0031446540880503146
sg667
F0.0020964360587002098
sg90
F0.0010482180293501049
sg91
F0.0031446540880503146
sg656
F0.0010482180293501049
sg494
F0.0010482180293501049
sg407
F0.0010482180293501049
sg126
F0.0041928721174004195
sg241
F0.0010482180293501049
sg570
F0.0041928721174004195
sg498
F0.008385744234800839
sg413
F0.0010482180293501049
sg703
F0.0010482180293501049
sg500
F0.0020964360587002098
sg96
F0.0010482180293501049
sg304
F0.0020964360587002098
sg98
F0.0010482180293501049
sg65
F0.0010482180293501049
sg248
F0.0010482180293501049
sg502
F0.0020964360587002098
sg727
F0.0020964360587002098
sg374
F0.0010482180293501049
sg7
F0.0020964360587002098
sg49
F0.0010482180293501049
sg265
F0.0041928721174004195
sg375
F0.0031446540880503146
sg506
F0.0010482180293501049
sg507
F0.0020964360587002098
sg101
F0.0010482180293501049
sg378
F0.0010482180293501049
sg253
F0.0010482180293501049
sg705
F0.0020964360587002098
sg675
F0.0041928721174004195
sg148
F0.006289308176100629
sg106
F0.0031446540880503146
sg19
F0.0010482180293501049
sg512
F0.0031446540880503146
sg381
F0.0031446540880503146
sg189
F0.007337526205450734
sg382
F0.0010482180293501049
sg574
F0.009433962264150943
sg670
F0.008385744234800839
sg707
F0.0010482180293501049
sg754
F0.006289308176100629
sg262
F0.0041928721174004195
sg112
F0.0010482180293501049
sg285
F0.0010482180293501049
sg517
F0.0010482180293501049
sg114
F0.0041928721174004195
sg115
F0.0020964360587002098
sg518
F0.0041928721174004195
sg116
F0.0020964360587002098
sg267
F0.0020964360587002098
sg731
F0.0020964360587002098
sg118
F0.0020964360587002098
sg119
F0.0020964360587002098
sg390
F0.0020964360587002098
sg709
F0.007337526205450734
sg384
F0.0010482180293501049
sg271
F0.0010482180293501049
sg580
F0.0010482180293501049
sg520
F0.0010482180293501049
sg272
F0.0010482180293501049
sg633
F0.006289308176100629
sg122
F0.0031446540880503146
sg123
F0.0020964360587002098
sg139
F0.0031446540880503146
sg581
F0.0041928721174004195
sg273
F0.0010482180293501049
sg270
F0.0010482180293501049
sg582
F0.0020964360587002098
sg394
F0.0020964360587002098
sg395
F0.0031446540880503146
sg438
F0.0010482180293501049
sg396
F0.0010482180293501049
sg218
F0.009433962264150943
sg526
F0.0010482180293501049
sg209
F0.0031446540880503146
sg527
F0.007337526205450734
sg432
F0.0020964360587002098
sg529
F0.0031446540880503146
sg219
F0.0010482180293501049
sg677
F0.0020964360587002098
sg711
F0.0020964360587002098
sg678
F0.0010482180293501049
sg596
F0.0010482180293501049
sg131
F0.007337526205450734
sg531
F0.0010482180293501049
sg340
F0.0010482180293501049
sg266
F0.0010482180293501049
sg403
F0.0010482180293501049
sg213
F0.0031446540880503146
sg278
F0.0020964360587002098
sg405
F0.0020964360587002098
sg712
F0.006289308176100629
sg635
F0.0020964360587002098
sg137
F0.0010482180293501049
sg281
F0.0020964360587002098
sg406
F0.0020964360587002098
sg535
F0.0010482180293501049
sg193
F0.0010482180293501049
sg499
F0.0010482180293501049
sg441
F0.010482180293501049
sg586
F0.0010482180293501049
sg638
F0.0020964360587002098
sg516
F0.0010482180293501049
sg682
F0.0031446540880503146
sg287
F0.0020964360587002098
sg334
F0.0020964360587002098
sg145
F0.0020964360587002098
sg146
F0.0031446540880503146
sg147
F0.0010482180293501049
sg730
F0.006289308176100629
sg142
F0.005241090146750524
sg9
F0.0041928721174004195
sg639
F0.0041928721174004195
sg291
F0.0010482180293501049
sg417
F0.0031446540880503146
ss.