(dp0
I1
(dp1
S'water'
p2
F0.009615384615384616
sS'sure'
p3
F0.07692307692307693
sS'look'
p4
F0.16346153846153846
sS'show'
p5
F0.0673076923076923
sS'shoes'
p6
F0.009615384615384616
sS'uniform'
p7
F0.07692307692307693
sS'high'
p8
F0.09615384615384616
sS'going'
p9
F0.038461538461538464
sS'wear'
p10
F0.20192307692307693
sS'dress'
p11
F0.08653846153846154
sS'red'
p12
F0.08653846153846154
sS'shirt'
p13
F0.08653846153846154
ssI2
(dp14
S'tear_#1'
p15
F0.18695652173913044
sS'natural'
p16
F0.034782608695652174
sg5
F0.013043478260869565
sS'tear'
p17
F0.18695652173913044
sS'top'
p18
F0.0391304347826087
sS'system'
p19
F0.030434782608695653
sg2
F0.034782608695652174
sS'small'
p20
F0.05217391304347826
sg9
F0.017391304347826087
sg10
F0.3695652173913043
sS'need'
p21
F0.034782608695652174
ssI3
(dp22
g4
F0.058823529411764705
sg7
F0.058823529411764705
sg8
F0.11764705882352941
sg10
F0.11764705882352941
sg21
F0.17647058823529413
sg6
F0.47058823529411764
ss.