(dp0
I1
(dp1
<<<<<<< HEAD
S'shoot'
p2
F0.21142857142857144
sS'woman'
p3
F0.017142857142857144
sS'photo'
p4
F0.005714285714285714
sS'look'
p5
F0.05714285714285714
sS'want'
p6
F0.07428571428571429
sS'show'
p7
F0.07428571428571429
sS'color'
p8
F0.005714285714285714
sS'money'
p9
F0.045714285714285714
sS'later'
p10
F0.011428571428571429
sS'dead'
p11
F0.02857142857142857
sS'times'
p12
F0.017142857142857144
sS'going'
p13
F0.14857142857142858
sS'lot'
p14
F0.08571428571428572
sS'movie'
p15
F0.005714285714285714
sS'part'
p16
F0.005714285714285714
sS'saw'
p17
F0.022857142857142857
sS'think'
p18
F0.10857142857142857
sS'film'
p19
F0.02857142857142857
sS'room'
p20
F0.045714285714285714
ssI2
(dp21
g2
F0.2926829268292683
sg3
F0.042682926829268296
sS'set'
p22
F0.04878048780487805
sS'love'
p23
F0.018292682926829267
sg20
F0.006097560975609756
sg8
F0.012195121951219513
sS'shot'
p24
F0.054878048780487805
sg10
F0.054878048780487805
sS'deer'
p25
F0.024390243902439025
sS'gun'
p26
F0.06707317073170732
sg11
F0.036585365853658534
sg12
F0.04878048780487805
sS'director'
p27
F0.012195121951219513
sg16
F0.012195121951219513
sS'police'
p28
F0.07317073170731707
sS'wanted'
p29
F0.012195121951219513
sg17
F0.042682926829268296
sS'killed'
p30
F0.07926829268292683
sg19
F0.006097560975609756
sS'left'
p31
F0.054878048780487805
ssI3
(dp32
g2
F0.1328125
sg3
F0.015625
sg22
F0.0625
sg23
F0.0625
sg5
F0.015625
sg20
F0.015625
sg9
F0.0234375
sg25
F0.015625
sg27
F0.078125
sg16
F0.0546875
sg14
F0.015625
sg15
F0.1484375
sg24
F0.03125
sg29
F0.078125
sg18
F0.0078125
sg19
F0.2109375
sg31
F0.03125
ssI4
(dp33
g2
F0.15384615384615385
sg22
F0.11538461538461539
sg8
F0.07692307692307693
sg4
F0.5769230769230769
sg14
F0.038461538461538464
sg19
F0.038461538461538464
ssI5
(dp34
g16
F0.5
sg26
F0.5
=======
<<<<<<< HEAD
S'tear_#1'
p2
F0.19724770642201836
sS'look'
p3
F0.05963302752293578
sS'tear'
p4
F0.19724770642201836
sS'wear'
p5
F0.45871559633027525
sS'need'
p6
F0.05045871559633028
sS'dress'
p7
F0.03669724770642202
=======
S'strike'
p2
F0.8403361344537815
sS'union'
p3
F0.11764705882352941
sS'iran'
p4
F0.04201680672268908
>>>>>>> 22bacdf92f7684c0eb5fae4b54c85e0a2e77f753
>>>>>>> 8215b0da6c4c4f84fe61e847e88acb3c1a4f8f14
ss.