(dp0
I1
(dp1
S'tennis'
p2
F0.10049019607843138
sS'played'
p3
F0.03431372549019608
sS'borg'
p4
F0.004901960784313725
sS'modern'
p5
F0.01715686274509804
sS'play'
p6
F0.05392156862745098
sS'high'
p7
F0.014705882352941176
sS'player'
p8
F0.058823529411764705
sS'need'
p9
F0.012254901960784314
sS'table'
p10
F0.03676470588235294
sS'court'
p11
F0.056372549019607844
sS'point'
p12
F0.0196078431372549
sS'rackets'
p13
F0.049019607843137254
sS'racket'
p14
F0.13725490196078433
sS'match'
p15
F0.0392156862745098
sS'tennis_#-1'
p16
F0.024509803921568627
sS'grip'
p17
F0.029411764705882353
sS'head'
p18
F0.0196078431372549
sS'ball'
p19
F0.04656862745098039
sS'hand'
p20
F0.00980392156862745
sS'early'
p21
F0.004901960784313725
sS'game'
p22
F0.04411764705882353
sS'part'
p23
F0.00980392156862745
sS'known'
p24
F0.022058823529411766
sS'states'
p25
F0.0024509803921568627
sS'think'
p26
F0.0024509803921568627
sS'later'
p27
F0.0024509803921568627
sS'side'
p28
F0.0196078431372549
sS'players'
p29
F0.08333333333333333
sS'small'
p30
F0.007352941176470588
sS'called'
p31
F0.03431372549019608
sS'left'
p32
F0.0024509803921568627
ssI2
(dp33
g3
F0.035211267605633804
sg18
F0.007042253521126761
sg7
F0.007042253521126761
sS'including'
p34
F0.04225352112676056
sg14
F0.14084507042253522
sS'home'
p35
F0.04225352112676056
sS'special'
p36
F0.014084507042253521
sS'united'
p37
F0.06338028169014084
sg11
F0.007042253521126761
sg12
F0.007042253521126761
sg13
F0.007042253521126761
sS'mr.'
p38
F0.007042253521126761
sS'film'
p39
F0.09859154929577464
sg6
F0.07746478873239436
sg21
F0.06338028169014084
sg23
F0.04929577464788732
sg24
F0.014084507042253521
sS'police'
p40
F0.07746478873239436
sS'racketeering'
p41
F0.007042253521126761
sg25
F0.056338028169014086
sg27
F0.04225352112676056
sS'american'
p42
F0.09154929577464789
sg31
F0.02112676056338028
sg32
F0.02112676056338028
ssI3
(dp43
g26
F0.04895104895104895
sg3
F0.01048951048951049
sg7
F0.017482517482517484
sg14
F0.23776223776223776
sg34
F0.024475524475524476
sg10
F0.0034965034965034965
sg9
F0.02097902097902098
sg35
F0.017482517482517484
sg36
F0.0034965034965034965
sS'agassi'
p44
F0.027972027972027972
sg37
F0.0034965034965034965
sS"'ll"
p45
F0.038461538461538464
sS'father'
p46
F0.024475524475524476
sS'politicians'
p47
F0.0034965034965034965
sg38
F0.027972027972027972
sS'going'
p48
F0.05244755244755245
sg18
F0.04195804195804196
sg20
F0.024475524475524476
sS'sampras'
p49
F0.0034965034965034965
sS'trying'
p50
F0.03496503496503497
sg21
F0.0034965034965034965
sg27
F0.03496503496503497
sg31
F0.024475524475524476
sS"n't"
p51
F0.13986013986013987
sS"'re"
p52
F0.055944055944055944
sg30
F0.024475524475524476
sg28
F0.01048951048951049
sg32
F0.038461538461538464
ssI4
(dp53
g12
F0.046511627906976744
sg47
F0.27906976744186046
sg23
F0.046511627906976744
sg14
F0.06976744186046512
sg41
F0.3023255813953488
sg50
F0.023255813953488372
sg31
F0.023255813953488372
sg36
F0.20930232558139536
ssI5
(dp54
g3
F0.05555555555555555
sg5
F0.05555555555555555
sg25
F0.027777777777777776
sg8
F0.013888888888888888
sg35
F0.013888888888888888
sg4
F0.027777777777777776
sg10
F0.08333333333333333
sg44
F0.013888888888888888
sg37
F0.027777777777777776
sg2
F0.2222222222222222
sg46
F0.05555555555555555
sg13
F0.027777777777777776
sg14
F0.05555555555555555
sg15
F0.027777777777777776
sg16
F0.013888888888888888
sg6
F0.013888888888888888
sg49
F0.1388888888888889
sg22
F0.013888888888888888
sg21
F0.041666666666666664
sg27
F0.027777777777777776
sg29
F0.027777777777777776
sg30
F0.013888888888888888
ss.