(dp0
I1
(dp1
S'tear_#1'
p2
F0.19724770642201836
sS'look'
p3
F0.05963302752293578
sS'tear'
p4
F0.19724770642201836
sS'wear'
p5
F0.45871559633027525
sS'need'
p6
F0.05045871559633028
sS'dress'
p7
F0.03669724770642202
ss.