(dp0
I1
(dp1
S'give'
p2
F0.01680672268907563
sS'appeared'
p3
F0.008403361344537815
sS'house'
p4
F0.008403361344537815
sS'soon'
p5
F0.008403361344537815
sS'rest'
p6
F0.008403361344537815
sS'church'
p7
F0.08403361344537816
sS'seen'
p8
F0.008403361344537815
sS'saw'
p9
F0.008403361344537815
sS'prince'
p10
F0.01680672268907563
sS'death'
p11
F0.01680672268907563
sS'end'
p12
F0.025210084033613446
sS'god'
p13
F0.01680672268907563
sS'nature'
p14
F0.01680672268907563
sS'till'
p15
F0.008403361344537815
sS'tell'
p16
F0.008403361344537815
sS'hope'
p17
F0.008403361344537815
sS'told'
p18
F0.008403361344537815
sS'christian'
p19
F0.058823529411764705
sS'power'
p20
F0.11764705882352941
sS'means'
p21
F0.008403361344537815
sS'object'
p22
F0.01680672268907563
sS'took'
p23
F0.008403361344537815
sS'free'
p24
F0.008403361344537815
sS'part'
p25
F0.01680672268907563
sS'words'
p26
F0.058823529411764705
sS'present'
p27
F0.008403361344537815
sS'land'
p28
F0.01680672268907563
sS'country'
p29
F0.01680672268907563
sS'called'
p30
F0.05042016806722689
sS'leave'
p31
F0.03361344537815126
sS'person'
p32
F0.03361344537815126
sS'place'
p33
F0.03361344537815126
sS'common'
p34
F0.058823529411764705
sS'abandon'
p35
F0.08403361344537816
sS'signes'
p36
F0.06722689075630252
sS'order'
p37
F0.01680672268907563
sS'left'
p38
F0.008403361344537815
ssI2
(dp39
S'think'
p40
F0.026627218934911243
sS'help'
p41
F0.005917159763313609
sS'deck'
p42
F0.03254437869822485
sg3
F0.011834319526627219
sS'fish'
p43
F0.0029585798816568047
sS'hands'
p44
F0.008875739644970414
sS'mind'
p45
F0.0029585798816568047
sg5
F0.05325443786982249
sS'brought'
p46
F0.023668639053254437
sS'heard'
p47
F0.014792899408284023
sS'manner'
p48
F0.01775147928994083
sS'sea'
p49
F0.020710059171597635
sg38
F0.008875739644970414
sS'vessel'
p50
F0.029585798816568046
sS'home'
p51
F0.0029585798816568047
sS'ship'
p52
F0.04142011834319527
sg9
F0.05029585798816568
sS'children'
p53
F0.008875739644970414
sS'boat'
p54
F0.005917159763313609
sS'situation'
p55
F0.01775147928994083
sg8
F0.011834319526627219
sg11
F0.023668639053254437
sg12
F0.005917159763313609
sS'want'
p56
F0.0029585798816568047
sS'thing'
p57
F0.020710059171597635
sS'friends'
p58
F0.014792899408284023
sS'began'
p59
F0.0029585798816568047
sg2
F0.0029585798816568047
sS'able'
p60
F0.0029585798816568047
sS'crew'
p61
F0.014792899408284023
sS'going'
p62
F0.005917159763313609
sS'astonishment'
p63
F0.01775147928994083
sS'passed'
p64
F0.0029585798816568047
sS'expected'
p65
F0.01775147928994083
sS'lord'
p66
F0.005917159763313609
sS'white'
p67
F0.026627218934911243
sg16
F0.0029585798816568047
sS'friend'
p68
F0.0029585798816568047
sS'board'
p69
F0.01775147928994083
sS'poor'
p70
F0.005917159763313609
sS'eyes'
p71
F0.0029585798816568047
sg22
F0.005917159763313609
sg21
F0.0029585798816568047
sS'night'
p72
F0.0029585798816568047
sS'stop'
p73
F0.011834319526627219
sg23
F0.01775147928994083
sS'water'
p74
F0.011834319526627219
sS'small'
p75
F0.008875739644970414
sS'moment'
p76
F0.011834319526627219
sg25
F0.005917159763313609
sS'understand'
p77
F0.005917159763313609
sS'fresh'
p78
F0.008875739644970414
sS'hopes'
p79
F0.008875739644970414
sS'immediately'
p80
F0.011834319526627219
sS'believe'
p81
F0.005917159763313609
sS'continued'
p82
F0.0029585798816568047
sg27
F0.0029585798816568047
sS'women'
p83
F0.0029585798816568047
sS'case'
p84
F0.0029585798816568047
sS'thought'
p85
F0.03550295857988166
sg28
F0.014792899408284023
sS'carried'
p86
F0.008875739644970414
sS'lost'
p87
F0.011834319526627219
sg29
F0.026627218934911243
sS'age'
p88
F0.0029585798816568047
sS'put'
p89
F0.03254437869822485
sS'days'
p90
F0.005917159763313609
sS'side'
p91
F0.011834319526627219
sS'large'
p92
F0.008875739644970414
sS'strange'
p93
F0.005917159763313609
sS'despair'
p94
F0.0029585798816568047
sg33
F0.008875739644970414
sS'greatest'
p95
F0.0029585798816568047
sg13
F0.0029585798816568047
sg35
F0.005917159763313609
sS'found'
p96
F0.011834319526627219
sS'gave'
p97
F0.023668639053254437
sg18
F0.023668639053254437
sg37
F0.008875739644970414
sg14
F0.0029585798816568047
sg17
F0.005917159763313609
ssI3
(dp98
S'heart'
p99
F0.006211180124223602
sS'set'
p100
F0.006211180124223602
sS'england'
p101
F0.006211180124223602
sg56
F0.012422360248447204
sS'father'
p102
F0.037267080745341616
sg44
F0.031055900621118012
sS'half'
p103
F0.006211180124223602
sg45
F0.018633540372670808
sS'making'
p104
F0.012422360248447204
sS'course'
p105
F0.012422360248447204
sS'human'
p106
F0.018633540372670808
sg8
F0.024844720496894408
sg51
F0.024844720496894408
sg9
F0.006211180124223602
sg53
F0.012422360248447204
sg11
F0.006211180124223602
sS'thinking'
p107
F0.006211180124223602
sg13
F0.006211180124223602
sg59
F0.024844720496894408
sg60
F0.018633540372670808
sS'young'
p108
F0.012422360248447204
sS'live'
p109
F0.037267080745341616
sg93
F0.006211180124223602
sg4
F0.024844720496894408
sg65
F0.012422360248447204
sS'john'
p110
F0.006211180124223602
sg16
F0.031055900621118012
sg18
F0.006211180124223602
sg70
F0.006211180124223602
sg71
F0.006211180124223602
sg22
F0.006211180124223602
sS'love'
p111
F0.006211180124223602
sg14
F0.006211180124223602
sg72
F0.031055900621118012
sg73
F0.006211180124223602
sg23
F0.012422360248447204
sg24
F0.012422360248447204
sg74
F0.012422360248447204
sg75
F0.018633540372670808
sg76
F0.006211180124223602
sg25
F0.006211180124223602
sg26
F0.006211180124223602
sS'child'
p112
F0.012422360248447204
sg79
F0.012422360248447204
sg80
F0.006211180124223602
sg58
F0.006211180124223602
sS'look'
p113
F0.031055900621118012
sg84
F0.006211180124223602
sS'sister'
p114
F0.055900621118012424
sg86
F0.006211180124223602
sg87
F0.012422360248447204
sg47
F0.006211180124223602
sg29
F0.012422360248447204
sg88
F0.006211180124223602
sS'wife'
p115
F0.006211180124223602
sg89
F0.006211180124223602
sg90
F0.012422360248447204
sS'morning'
p116
F0.006211180124223602
sS'marriage'
p117
F0.018633540372670808
sg95
F0.006211180124223602
sS'mother'
p118
F0.08695652173913043
sg35
F0.055900621118012424
sg96
F0.012422360248447204
sg30
F0.018633540372670808
sg38
F0.018633540372670808
ssI4
(dp119
g2
F0.007936507936507936
sg4
F0.07936507936507936
sg18
F0.007936507936507936
sg45
F0.015873015873015872
sg5
F0.03968253968253968
sg6
F0.015873015873015872
sS'son'
p120
F0.007936507936507936
sg47
F0.023809523809523808
sS'woman'
p121
F0.023809523809523808
sg48
F0.047619047619047616
sg51
F0.015873015873015872
sg53
F0.007936507936507936
sg85
F0.03968253968253968
sg12
F0.015873015873015872
sg57
F0.007936507936507936
sg102
F0.007936507936507936
sg108
F0.015873015873015872
sg15
F0.031746031746031744
sg63
F0.015873015873015872
sg64
F0.007936507936507936
sg66
F0.007936507936507936
sg83
F0.015873015873015872
sg34
F0.007936507936507936
sg71
F0.015873015873015872
sg22
F0.007936507936507936
sS'knew'
p122
F0.007936507936507936
sg76
F0.015873015873015872
sg25
F0.06349206349206349
sg77
F0.007936507936507936
sg26
F0.007936507936507936
sg79
F0.007936507936507936
sg80
F0.015873015873015872
sg81
F0.015873015873015872
sg82
F0.023809523809523808
sS'care'
p123
F0.007936507936507936
sS'search'
p124
F0.015873015873015872
sS'daughter'
p125
F0.015873015873015872
sg86
F0.007936507936507936
sg105
F0.015873015873015872
sg115
F0.015873015873015872
sg89
F0.023809523809523808
sg90
F0.03968253968253968
sg116
F0.015873015873015872
sg92
F0.015873015873015872
sg32
F0.007936507936507936
sg94
F0.023809523809523808
sg33
F0.015873015873015872
sg95
F0.007936507936507936
sg72
F0.03968253968253968
sg97
F0.047619047619047616
sg38
F0.023809523809523808
ssI5
(dp126
g99
F0.006097560975609756
sg101
F0.06097560975609756
sg2
F0.006097560975609756
sg102
F0.036585365853658534
sg43
F0.012195121951219513
sg44
F0.024390243902439025
sg45
F0.024390243902439025
sg5
F0.042682926829268296
sg6
F0.024390243902439025
sg120
F0.04878048780487805
sg46
F0.024390243902439025
sg105
F0.018292682926829267
sg85
F0.018292682926829267
sg7
F0.006097560975609756
sg111
F0.012195121951219513
sg116
F0.018292682926829267
sg10
F0.018292682926829267
sg8
F0.006097560975609756
sS'horse'
p127
F0.006097560975609756
sg11
F0.018292682926829267
sg118
F0.018292682926829267
sg59
F0.006097560975609756
sg72
F0.006097560975609756
sg60
F0.012195121951219513
sg108
F0.006097560975609756
sg15
F0.006097560975609756
sg109
F0.018292682926829267
sg64
F0.018292682926829267
sg65
F0.006097560975609756
sg66
F0.012195121951219513
sg67
F0.012195121951219513
sg17
F0.018292682926829267
sg97
F0.018292682926829267
sg22
F0.012195121951219513
sg122
F0.006097560975609756
sg23
F0.024390243902439025
sS'french'
p128
F0.024390243902439025
sg76
F0.012195121951219513
sg25
F0.024390243902439025
sg103
F0.024390243902439025
sg79
F0.006097560975609756
sg82
F0.024390243902439025
sg123
F0.03048780487804878
sg84
F0.012195121951219513
sg114
F0.006097560975609756
sg28
F0.006097560975609756
sg86
F0.018292682926829267
sg87
F0.018292682926829267
sg47
F0.012195121951219513
sg29
F0.006097560975609756
sg88
F0.024390243902439025
sg90
F0.006097560975609756
sS'leaving'
p129
F0.006097560975609756
sg31
F0.006097560975609756
sg94
F0.006097560975609756
sg33
F0.006097560975609756
sg95
F0.012195121951219513
sS'henry'
p130
F0.04878048780487805
sg96
F0.012195121951219513
sg38
F0.012195121951219513
ssI6
(dp131
g99
F0.025380710659898477
sg100
F0.01015228426395939
sg111
F0.025380710659898477
sg41
F0.030456852791878174
sg42
F0.005076142131979695
sg3
F0.005076142131979695
sg45
F0.005076142131979695
sg115
F0.005076142131979695
sg47
F0.005076142131979695
sg48
F0.005076142131979695
sg56
F0.02030456852791878
sg7
F0.01015228426395939
sg116
F0.01015228426395939
sg9
F0.005076142131979695
sS'find'
p132
F0.005076142131979695
sg85
F0.030456852791878174
sg127
F0.01015228426395939
sg12
F0.025380710659898477
sg107
F0.030456852791878174
sg13
F0.07106598984771574
sS'sail'
p133
F0.005076142131979695
sg60
F0.015228426395939087
sg61
F0.01015228426395939
sg109
F0.005076142131979695
sg62
F0.02030456852791878
sg66
F0.005076142131979695
sg110
F0.07614213197969544
sg16
F0.005076142131979695
sg17
F0.02030456852791878
sg97
F0.005076142131979695
sg71
F0.005076142131979695
sg20
F0.025380710659898477
sg122
F0.025380710659898477
sg114
F0.005076142131979695
sg128
F0.005076142131979695
sg25
F0.005076142131979695
sg26
F0.005076142131979695
sg44
F0.02030456852791878
sg113
F0.005076142131979695
sg84
F0.005076142131979695
sg124
F0.005076142131979695
sg86
F0.005076142131979695
sg87
F0.005076142131979695
sS'things'
p134
F0.02030456852791878
sg91
F0.01015228426395939
sg53
F0.005076142131979695
sg90
F0.02030456852791878
sg129
F0.03553299492385787
sg92
F0.005076142131979695
sg93
F0.02030456852791878
sS'thy'
p135
F0.04568527918781726
sg33
F0.005076142131979695
sg95
F0.005076142131979695
sg83
F0.01015228426395939
sg72
F0.015228426395939087
sg35
F0.15736040609137056
sg104
F0.005076142131979695
sg37
F0.01015228426395939
ssI7
(dp136
g100
F0.034782608695652174
sg3
F0.017391304347826087
sg43
F0.043478260869565216
sg103
F0.02608695652173913
sg5
F0.02608695652173913
sg6
F0.008695652173913044
sg46
F0.017391304347826087
sg48
F0.008695652173913044
sg56
F0.02608695652173913
sg50
F0.017391304347826087
sg52
F0.008695652173913044
sg9
F0.008695652173913044
sg132
F0.02608695652173913
sg54
F0.05217391304347826
sg55
F0.043478260869565216
sg127
F0.034782608695652174
sg11
F0.017391304347826087
sg59
F0.017391304347826087
sg133
F0.06086956521739131
sg60
F0.008695652173913044
sg15
F0.008695652173913044
sg69
F0.02608695652173913
sg64
F0.008695652173913044
sg65
F0.008695652173913044
sg70
F0.008695652173913044
sg96
F0.043478260869565216
sg23
F0.017391304347826087
sg74
F0.10434782608695652
sg76
F0.008695652173913044
sg25
F0.008695652173913044
sg44
F0.008695652173913044
sg79
F0.034782608695652174
sg80
F0.017391304347826087
sg81
F0.017391304347826087
sg124
F0.008695652173913044
sg113
F0.017391304347826087
sg90
F0.008695652173913044
sg116
F0.017391304347826087
sg94
F0.017391304347826087
sg33
F0.008695652173913044
sg95
F0.008695652173913044
sg72
F0.02608695652173913
sg35
F0.017391304347826087
sg78
F0.034782608695652174
sg38
F0.008695652173913044
ssI8
(dp137
g100
F0.0026666666666666666
sg101
F0.0026666666666666666
sg56
F0.0026666666666666666
sg2
F0.008
sg3
F0.0026666666666666666
sg4
F0.005333333333333333
sg103
F0.0026666666666666666
sg112
F0.029333333333333333
sg45
F0.016
sg104
F0.013333333333333334
sg46
F0.005333333333333333
sg105
F0.024
sg85
F0.005333333333333333
sg106
F0.010666666666666666
sg7
F0.0026666666666666666
sg51
F0.02666666666666667
sS'girl'
p138
F0.021333333333333333
sg10
F0.010666666666666666
sg53
F0.021333333333333333
sg31
F0.010666666666666666
sg33
F0.029333333333333333
sg107
F0.0026666666666666666
sg134
F0.021333333333333333
sg59
F0.018666666666666668
sg17
F0.016
sg102
F0.008
sg108
F0.005333333333333333
sg132
F0.010666666666666666
sg15
F0.0026666666666666666
sg62
F0.0026666666666666666
sg64
F0.005333333333333333
sg65
F0.0026666666666666666
sg66
F0.008
sg67
F0.0026666666666666666
sg68
F0.005333333333333333
sg18
F0.013333333333333334
sg70
F0.008
sg121
F0.010666666666666666
sg6
F0.0026666666666666666
sg21
F0.024
sg122
F0.005333333333333333
sg73
F0.010666666666666666
sg114
F0.005333333333333333
sg24
F0.016
sg23
F0.016
sg74
F0.0026666666666666666
sg75
F0.005333333333333333
sg76
F0.008
sg25
F0.0026666666666666666
sg77
F0.013333333333333334
sg128
F0.008
sg40
F0.032
sg96
F0.016
sg89
F0.005333333333333333
sg81
F0.010666666666666666
sg58
F0.013333333333333334
sg27
F0.02666666666666667
sg83
F0.018666666666666668
sg84
F0.024
sg124
F0.010666666666666666
sg28
F0.008
sg125
F0.021333333333333333
sg113
F0.005333333333333333
sg52
F0.0026666666666666666
sg115
F0.010666666666666666
sg29
F0.010666666666666666
sg88
F0.0026666666666666666
sg8
F0.008
sg93
F0.0026666666666666666
sg91
F0.008
sg92
F0.005333333333333333
sg32
F0.005333333333333333
sg94
F0.005333333333333333
sg117
F0.016
sg95
F0.0026666666666666666
sg118
F0.010666666666666666
sg35
F0.15466666666666667
sg78
F0.0026666666666666666
sg37
F0.005333333333333333
sg14
F0.010666666666666666
sg38
F0.02666666666666667
ssI9
(dp139
g99
F0.012195121951219513
sg49
F0.07317073170731707
sg102
F0.04878048780487805
sg45
F0.024390243902439025
sg47
F0.036585365853658534
sg48
F0.012195121951219513
sg106
F0.012195121951219513
sg50
F0.012195121951219513
sg138
F0.012195121951219513
sg9
F0.012195121951219513
sg132
F0.012195121951219513
sg127
F0.012195121951219513
sg56
F0.036585365853658534
sg57
F0.024390243902439025
sg107
F0.012195121951219513
sg60
F0.024390243902439025
sg108
F0.024390243902439025
sg61
F0.012195121951219513
sg62
F0.024390243902439025
sg69
F0.04878048780487805
sg64
F0.012195121951219513
sg68
F0.08536585365853659
sg70
F0.036585365853658534
sg71
F0.036585365853658534
sg121
F0.012195121951219513
sg19
F0.012195121951219513
sg20
F0.012195121951219513
sg14
F0.024390243902439025
sg22
F0.012195121951219513
sg52
F0.036585365853658534
sg25
F0.012195121951219513
sg123
F0.024390243902439025
sg114
F0.012195121951219513
sg87
F0.012195121951219513
sg29
F0.04878048780487805
sg88
F0.012195121951219513
sg85
F0.012195121951219513
sg32
F0.012195121951219513
sg117
F0.012195121951219513
sg34
F0.012195121951219513
sg35
F0.04878048780487805
sg96
F0.012195121951219513
ss.