(dp0
I1
(dp1
S'comment'
p2
F0.008939974457215836
sS'think'
p3
F0.01277139208173691
sS'force'
p4
F0.001277139208173691
sS'want'
p5
F0.024265644955300127
sS'extra'
p6
F0.008939974457215836
sS'@card@'
p7
F0.08045977011494253
sS'number'
p8
F0.0140485312899106
sS'@card@_#2'
p9
F0.001277139208173691
sS'high'
p10
F0.006385696040868455
sS"n't"
p11
F0.0280970625798212
sS'result'
p12
F0.01532567049808429
sS'point'
p13
F0.006385696040868455
sS'need'
p14
F0.024265644955300127
sS'davidgiaretta'
p15
F0.001277139208173691
sS'message'
p16
F0.002554278416347382
sS'find'
p17
F0.01532567049808429
sS'page'
p18
F0.001277139208173691
sS'information'
p19
F0.0140485312899106
sS'end'
p20
F0.011494252873563218
sS'system'
p21
F0.020434227330779056
sS'service'
p22
F0.002554278416347382
sS'support'
p23
F0.01532567049808429
sS'create'
p24
F0.001277139208173691
sS'give'
p25
F0.02554278416347382
sS'feature'
p26
F0.010217113665389528
sS'research'
p27
F0.01277139208173691
sS'start'
p28
F0.007662835249042145
sS'add'
p29
F0.3486590038314176
sS'@card@_#-2'
p30
F0.002554278416347382
sS'tell'
p31
F0.008939974457215836
sS'interest'
p32
F0.011494252873563218
sS'include'
p33
F0.010217113665389528
sS'approach'
p34
F0.006385696040868455
sS'price'
p35
F0.005108556832694764
sS'development'
p36
F0.001277139208173691
sS'government'
p37
F0.008939974457215836
sS'company'
p38
F0.0140485312899106
sS'base'
p39
F0.011494252873563218
sS'decide'
p40
F0.001277139208173691
sS'put'
p41
F0.01277139208173691
sS'line'
p42
F0.005108556832694764
sS'change'
p43
F0.01532567049808429
sS'case'
p44
F0.019157088122605363
sS'word'
p45
F0.024265644955300127
sS'look'
p46
F0.020434227330779056
sS'language'
p47
F0.0140485312899106
sS'issue'
p48
F0.011494252873563218
sS'list'
p49
F0.01277139208173691
sS'order'
p50
F0.001277139208173691
sS'large'
p51
F0.002554278416347382
sS'thing'
p52
F0.01277139208173691
sS'part'
p53
F0.002554278416347382
sS'allow'
p54
F0.01277139208173691
sS'report'
p55
F0.010217113665389528
sS'book'
p56
F0.016602809706257982
sS'view'
p57
F0.001277139208173691
ssI2
(dp58
g6
F0.022222222222222223
sg7
F0.022222222222222223
sg35
F0.06666666666666667
sg13
F0.35555555555555557
sg8
F0.1111111111111111
sg17
F0.044444444444444446
sg10
F0.022222222222222223
sg28
F0.13333333333333333
sg31
F0.044444444444444446
sg50
F0.17777777777777778
ssI3
(dp59
g36
F0.09278350515463918
sg20
F0.030927835051546393
sg46
F0.010309278350515464
sg22
F0.041237113402061855
sg37
F0.041237113402061855
sg13
F0.010309278350515464
sS'charge'
p60
F0.10309278350515463
sS'month'
p61
F0.12371134020618557
sg11
F0.010309278350515464
sg55
F0.030927835051546393
sg29
F0.041237113402061855
sg39
F0.030927835051546393
sS'link'
p62
F0.020618556701030927
sg40
F0.10309278350515463
sg14
F0.041237113402061855
sg4
F0.12371134020618557
sg53
F0.07216494845360824
sg52
F0.010309278350515464
sg34
F0.020618556701030927
sg3
F0.030927835051546393
sg57
F0.010309278350515464
ssI4
(dp63
g2
F0.03636363636363636
sg6
F0.02727272727272727
sS'datum'
p64
F0.03636363636363636
sg10
F0.01818181818181818
sg12
F0.01818181818181818
sS'file'
p65
F0.11818181818181818
sg16
F0.09090909090909091
sg22
F0.03636363636363636
sg24
F0.02727272727272727
sg21
F0.00909090909090909
sg27
F0.00909090909090909
sg29
F0.10909090909090909
sg30
F0.02727272727272727
sS'build'
p66
F0.01818181818181818
sg32
F0.00909090909090909
sg33
F0.045454545454545456
sg53
F0.00909090909090909
sg42
F0.045454545454545456
sS'customer'
p67
F0.01818181818181818
sS'document'
p68
F0.08181818181818182
sg46
F0.09090909090909091
sS'client'
p69
F0.11818181818181818
ssI5
(dp70
g7
F0.1271186440677966
sg64
F0.01694915254237288
sg8
F0.025423728813559324
sg9
F0.09745762711864407
sg10
F0.00423728813559322
sg41
F0.00423728813559322
sg5
F0.00423728813559322
sg17
F0.0211864406779661
sg22
F0.00423728813559322
sS'detail'
p71
F0.01694915254237288
sS'click'
p72
F0.00423728813559322
sg60
F0.00423728813559322
sg30
F0.012711864406779662
sg66
F0.05084745762711865
sg32
F0.00847457627118644
sg33
F0.025423728813559324
sg34
F0.00423728813559322
sg31
F0.00847457627118644
sg36
F0.00423728813559322
sS'info'
p73
F0.046610169491525424
sg35
F0.01694915254237288
sS'site'
p74
F0.0211864406779661
sg29
F0.2076271186440678
sg62
F0.05084745762711865
sS'date'
p75
F0.046610169491525424
sg26
F0.012711864406779662
sg53
F0.012711864406779662
sg67
F0.038135593220338986
sg49
F0.00423728813559322
sg18
F0.00847457627118644
sg51
F0.038135593220338986
sS'item'
p76
F0.0211864406779661
sg39
F0.00423728813559322
sg55
F0.00423728813559322
sg56
F0.00847457627118644
sg57
F0.012711864406779662
ssI6
(dp77
g5
F0.015706806282722512
sg25
F0.010471204188481676
sg7
F0.04712041884816754
sg8
F0.010471204188481676
sg10
F0.010471204188481676
sg12
F0.005235602094240838
sg65
F0.05235602094240838
sg14
F0.031413612565445025
sg17
F0.015706806282722512
sS'select'
p78
F0.05759162303664921
sg24
F0.03664921465968586
sg13
F0.020942408376963352
sg71
F0.05759162303664921
sg72
F0.10471204188481675
sg28
F0.005235602094240838
sg29
F0.193717277486911
sg68
F0.005235602094240838
sg48
F0.005235602094240838
sg73
F0.005235602094240838
sg37
F0.005235602094240838
sg35
F0.005235602094240838
sg74
F0.031413612565445025
sg39
F0.005235602094240838
sg62
F0.005235602094240838
sg42
F0.010471204188481676
sg43
F0.04712041884816754
sg44
F0.015706806282722512
sg49
F0.03664921465968586
sg76
F0.03664921465968586
sg54
F0.015706806282722512
sg18
F0.06806282722513089
sg57
F0.02617801047120419
ssI7
(dp79
g44
F0.017857142857142856
sg2
F0.05357142857142857
sg33
F0.017857142857142856
sg15
F0.21428571428571427
sg22
F0.05357142857142857
sg19
F0.017857142857142856
sg73
F0.03571428571428571
sg64
F0.05357142857142857
sg29
F0.05357142857142857
sg30
F0.19642857142857142
sg54
F0.03571428571428571
sg48
F0.03571428571428571
sg14
F0.017857142857142856
sg68
F0.05357142857142857
sg34
F0.07142857142857142
sg50
F0.03571428571428571
sg43
F0.017857142857142856
sg57
F0.017857142857142856
ssI8
(dp80
g7
F0.16666666666666666
sg29
F0.16666666666666666
sg64
F0.3333333333333333
sg24
F0.16666666666666666
sg54
F0.16666666666666666
ss.