(dp0
I1
(dp1
S'think'
p2
F0.027700831024930747
sS'help'
p3
F0.014773776546629732
sS'office'
p4
F0.006463527239150508
sS'give'
p5
F0.024007386888273315
sS'@card@'
p6
F0.055401662049861494
sS'site'
p7
F0.010156971375807941
sS'month'
p8
F0.0018467220683287165
sS"n't"
p9
F0.029547553093259463
sS'want'
p10
F0.01662049861495845
sS'need'
p11
F0.017543859649122806
sS'home'
p12
F0.009233610341643583
sS'happen'
p13
F0.010156971375807941
sS'find'
p14
F0.02585410895660203
sS'information'
p15
F0.0110803324099723
sS'write'
p16
F0.012003693444136657
sS'group'
p17
F0.0009233610341643582
sS'service'
p18
F0.0110803324099723
sS'provide'
p19
F0.008310249307479225
sS'pay'
p20
F0.019390581717451522
sS'support'
p21
F0.008310249307479225
sS'question'
p22
F0.04524469067405355
sS'send'
p23
F0.007386888273314866
sS'member'
p24
F0.012003693444136657
sS'feel'
p25
F0.012003693444136657
sS'live'
p26
F0.01569713758079409
sS'book'
p27
F0.010156971375807941
sS'call'
p28
F0.014773776546629732
sS'answer'
p29
F0.01662049861495845
sS'health'
p30
F0.0009233610341643582
sS'local'
p31
F0.006463527239150508
sS'public'
p32
F0.0110803324099723
sS'woman'
p33
F0.012003693444136657
sS'form'
p34
F0.010156971375807941
sS'press'
p35
F0.0046168051708217915
sS'put'
p36
F0.012927054478301015
sS'company'
p37
F0.006463527239150508
sS'test'
p38
F0.0009233610341643582
sS'part'
p39
F0.0110803324099723
sS'question_#1'
p40
F0.013850415512465374
sS'minister'
p41
F0.0018467220683287165
sS'letter'
p42
F0.010156971375807941
sS'child'
p43
F0.009233610341643583
sS'ask'
p44
F0.29547553093259465
sS'post'
p45
F0.003693444136657433
sS'hold'
p46
F0.00554016620498615
sS'school'
p47
F0.012003693444136657
sS'look'
p48
F0.012927054478301015
sS'try'
p49
F0.008310249307479225
sS'manual'
p50
F0.0009233610341643582
sS'disease'
p51
F0.0009233610341643582
sS'tell'
p52
F0.018467220683287166
sS'leave'
p53
F0.008310249307479225
sS'thing'
p54
F0.014773776546629732
sS'contact'
p55
F0.006463527239150508
sS'place'
p56
F0.012927054478301015
sS'report'
p57
F0.010156971375807941
sS'order'
p58
F0.010156971375807941
sS'talk'
p59
F0.012927054478301015
ssI2
(dp60
S'campaign'
p61
F0.03861003861003861
sg5
F0.003861003861003861
sg6
F0.05791505791505792
sg8
F0.03088803088803089
sg36
F0.003861003861003861
sg23
F0.011583011583011582
sg10
F0.003861003861003861
sg11
F0.007722007722007722
sg12
F0.003861003861003861
sg15
F0.03474903474903475
sg17
F0.04633204633204633
sg18
F0.03088803088803089
sg19
F0.04633204633204633
sg21
F0.007722007722007722
sg22
F0.003861003861003861
sS'publish'
p62
F0.007722007722007722
sg24
F0.007722007722007722
sg28
F0.015444015444015444
sg38
F0.015444015444015444
sg30
F0.04633204633204633
sg31
F0.03861003861003861
sg32
F0.03861003861003861
sS'business'
p63
F0.03861003861003861
sS'food'
p64
F0.05019305019305019
sg37
F0.03474903474903475
sg41
F0.02702702702702703
sg42
F0.023166023166023165
sg43
F0.003861003861003861
sg44
F0.07335907335907337
sS'nov'
p65
F0.04633204633204633
sg46
F0.019305019305019305
sS'mobile'
p66
F0.0694980694980695
sS'country'
p67
F0.04247104247104247
sg51
F0.05019305019305019
sg52
F0.003861003861003861
sg55
F0.015444015444015444
ssI3
(dp68
g35
F0.2
sg22
F0.2
sg42
F0.2
sg63
F0.2
sg5
F0.2
ssI4
(dp69
g15
F0.023255813953488372
sg17
F0.011627906976744186
sg4
F0.046511627906976744
sg20
F0.011627906976744186
sg37
F0.011627906976744186
sg50
F0.4069767441860465
sg62
F0.22093023255813954
sg16
F0.011627906976744186
sg55
F0.011627906976744186
sg11
F0.03488372093023256
sS'shortly'
p70
F0.19767441860465115
sg31
F0.011627906976744186
ssI5
(dp71
g9
F0.05555555555555555
sg47
F0.05555555555555555
sg17
F0.018518518518518517
sg38
F0.16666666666666666
sg54
F0.037037037037037035
sg35
F0.1111111111111111
sg20
F0.018518518518518517
sg21
F0.018518518518518517
sg23
F0.018518518518518517
sg8
F0.018518518518518517
sg53
F0.037037037037037035
sg11
F0.037037037037037035
sg39
F0.018518518518518517
sg49
F0.05555555555555555
sg41
F0.037037037037037035
sg10
F0.07407407407407407
sg44
F0.018518518518518517
sg13
F0.037037037037037035
sg45
F0.16666666666666666
ssI6
(dp72
g3
F0.0625
sg6
F0.0625
sS'cent'
p73
F0.6875
sg30
F0.0625
sg46
F0.0625
sg14
F0.0625
ssI7
(dp74
g15
F0.05555555555555555
sg47
F0.05555555555555555
sg61
F0.05555555555555555
sg21
F0.05555555555555555
sg16
F0.05555555555555555
sg10
F0.05555555555555555
sS'hijab'
p75
F0.6111111111111112
sg14
F0.05555555555555555
ss.