(dp0
I1
(dp1
S'going'
p2
F0.030303030303030304
sS'bat'
p3
F0.5037878787878788
sS'hit'
p4
F0.03409090909090909
sS'room'
p5
F0.03409090909090909
sS'took'
p6
F0.026515151515151516
sS'big'
p7
F0.030303030303030304
sS'head'
p8
F0.03409090909090909
sS'hand'
p9
F0.03787878787878788
sS'high'
p10
F0.030303030303030304
sS'game'
p11
F0.045454545454545456
sS'contact'
p12
F0.007575757575757576
sS'bats'
p13
F0.022727272727272728
sS'swing'
p14
F0.022727272727272728
sS'baseball'
p15
F0.045454545454545456
sS'species'
p16
F0.03787878787878788
sS'red'
p17
F0.026515151515151516
sS'left'
p18
F0.030303030303030304
ssI2
(dp19
g12
F0.5
sg13
F0.16666666666666666
sg6
F0.08333333333333333
sg17
F0.08333333333333333
sg14
F0.16666666666666666
ss.