(dp0
I1
(dp1
S'set'
p2
F0.014084507042253521
sS'love'
p3
F0.028169014084507043
sS'figure'
p4
F0.007042253521126761
sS'point'
p5
F0.02112676056338028
sS'house'
p6
F0.04225352112676056
sS'number'
p7
F0.017605633802816902
sS'evidence'
p8
F0.01056338028169014
sS'want'
p9
F0.035211267605633804
sS'information'
p10
F0.014084507042253521
sS'end'
p11
F0.014084507042253521
sS'finally'
p12
F0.02112676056338028
sS'live'
p13
F0.028169014084507043
sS'going'
p14
F0.03169014084507042
sS'health'
p15
F0.0035211267605633804
sS'main'
p16
F0.014084507042253521
sS'palm_#1'
p17
F0.0035211267605633804
sS'notice'
p18
F0.0035211267605633804
sS'woman'
p19
F0.04225352112676056
sS'recently'
p20
F0.02112676056338028
sS'knew'
p21
F0.03169014084507042
sS'water'
p22
F0.0035211267605633804
sS'date'
p23
F0.323943661971831
sS'women'
p24
F0.03169014084507042
sS'look'
p25
F0.02464788732394366
sS'study'
p26
F0.0035211267605633804
sS'later'
p27
F0.03873239436619718
sS'days'
p28
F0.02464788732394366
sS'times'
p29
F0.0035211267605633804
sS'thought'
p30
F0.03873239436619718
sS'place'
p31
F0.017605633802816902
sS'night'
p32
F0.035211267605633804
sS'found'
p33
F0.007042253521126761
sS'think'
p34
F0.04225352112676056
ssI2
(dp35
g26
F0.025
sS'students'
p36
F0.05
sS'national'
p37
F0.025
sg7
F0.025
sg12
F0.025
sg33
F0.05
sS'reading'
p38
F0.425
sS'studies'
p39
F0.025
sS'fluency'
p40
F0.35
ssI3
(dp41
S'palm'
p42
F0.21476510067114093
sg22
F0.04697986577181208
sg19
F0.006711409395973154
sg11
F0.006711409395973154
sg4
F0.006711409395973154
sg5
F0.013422818791946308
sS'period'
p43
F0.04697986577181208
sg37
F0.03355704697986577
sS'tree'
p44
F0.12080536912751678
sg28
F0.020134228187919462
sg7
F0.013422818791946308
sS'early'
p45
F0.03355704697986577
sg20
F0.013422818791946308
sg12
F0.020134228187919462
sS'black'
p46
F0.006711409395973154
sS'learning'
p47
F0.006711409395973154
sg23
F0.19463087248322147
sg33
F0.006711409395973154
sg16
F0.006711409395973154
sg17
F0.1342281879194631
sg29
F0.04697986577181208
ssI4
(dp48
g10
F0.06593406593406594
sg2
F0.02197802197802198
sg26
F0.054945054945054944
sg7
F0.01098901098901099
sS'library'
p49
F0.16483516483516483
sg15
F0.23076923076923078
sS'websites'
p50
F0.14285714285714285
sS'online'
p51
F0.06593406593406594
sg23
F0.02197802197802198
sg16
F0.01098901098901099
sg39
F0.01098901098901099
sS'public'
p52
F0.1978021978021978
ssI5
(dp53
g38
F0.0425531914893617
sg11
F0.0425531914893617
sg25
F0.06382978723404255
sg36
F0.23404255319148937
sg37
F0.06382978723404255
sg27
F0.02127659574468085
sg8
F0.02127659574468085
sS'standards'
p54
F0.1702127659574468
sg2
F0.0425531914893617
sg47
F0.14893617021276595
sg51
F0.0851063829787234
sg23
F0.02127659574468085
sg16
F0.02127659574468085
sg39
F0.02127659574468085
ssI6
(dp55
g43
F0.06060606060606061
sS'patient'
p56
F0.15151515151515152
sg4
F0.015151515151515152
sg26
F0.045454545454545456
sg28
F0.030303030303030304
sg7
F0.015151515151515152
sS'patients'
p57
F0.21212121212121213
sg15
F0.015151515151515152
sg31
F0.030303030303030304
sg23
F0.3181818181818182
sg33
F0.045454545454545456
sg39
F0.06060606060606061
ssI7
(dp58
g30
F0.02702702702702703
sg56
F0.02702702702702703
sg4
F0.10810810810810811
sg28
F0.02702702702702703
sg8
F0.10810810810810811
sg45
F0.10810810810810811
sg13
F0.02702702702702703
sg46
F0.02702702702702703
sg51
F0.02702702702702703
sg23
F0.08108108108108109
sg15
F0.02702702702702703
sS'tacca'
p59
F0.24324324324324326
sg38
F0.02702702702702703
sg39
F0.05405405405405406
sg24
F0.08108108108108109
ssI8
(dp60
g18
F0.32
sS'selling'
p61
F0.36
sg11
F0.04
sg28
F0.12
sg31
F0.04
sg23
F0.08
sg16
F0.04
ss.