(dp0
I1
(dp1
S'p_c_#2'
p2
F0.0028336639274582033
sS'p_c_#3'
p3
F0.003400396712949844
sS'help'
p4
F0.0005667327854916407
sS'specimens'
p5
F0.005100595069424767
sS'food'
p6
F0.003967129498441485
sS'money'
p7
F0.0019835647492207425
sS'pigeons'
p8
F0.007084159818645509
sS'soon'
p9
F0.0011334655709832814
sS'yellow'
p10
F0.004250495891187305
sS'sperm'
p11
F0.004533862283933126
sS'bring'
p12
F0.00028336639274582036
sS'mile'
p13
F0.0005667327854916407
sS'identify'
p14
F0.001700198356474922
sS'looks'
p15
F0.0036837631056956645
sS'roasted'
p16
F0.00028336639274582036
sS'earth'
p17
F0.003400396712949844
sS'yes'
p18
F0.002266931141966563
sS'research'
p19
F0.006234060640408047
sS'fine'
p20
F0.0028336639274582033
sS'birds'
p21
F0.011334655709832813
sS'ground'
p22
F0.00028336639274582036
sS'superior'
p23
F0.001700198356474922
sS'cut'
p24
F0.0014168319637291016
sS'brian'
p25
F0.0019835647492207425
sS'front'
p26
F0.001700198356474922
sS'white'
p27
F0.022102578634173985
sS'sky'
p28
F0.002266931141966563
sS'late'
p29
F0.0036837631056956645
sS'finally'
p30
F0.0011334655709832814
sS'black'
p31
F0.00028336639274582036
sS'photo'
p32
F0.0019835647492207425
sS'include'
p33
F0.00028336639274582036
sS'split'
p34
F0.003400396712949844
sS'brown'
p35
F0.00028336639274582036
sS'coop'
p36
F0.001700198356474922
sS'sense'
p37
F0.004533862283933126
sS'pure'
p38
F0.003400396712949844
sS'beat'
p39
F0.0031170303202040237
sS'big'
p40
F0.003967129498441485
sS'dark'
p41
F0.002266931141966563
sS'couric'
p42
F0.004533862283933126
sS'game'
p43
F0.001700198356474922
sS'nearly'
p44
F0.0011334655709832814
sS'half'
p45
F0.0036837631056956645
sS'arriving'
p46
F0.0014168319637291016
sS'falcon'
p47
F0.005100595069424767
sS'bit'
p48
F0.003400396712949844
sS'parked'
p49
F0.00028336639274582036
sS'learned'
p50
F0.0056673278549164065
sS'white_#-1'
p51
F0.00793425899688297
sS'gray'
p52
F0.0031170303202040237
sS'parrot'
p53
F0.0014168319637291016
sS'lost'
p54
F0.00793425899688297
sS'level'
p55
F0.002266931141966563
sS'gun'
p56
F0.00028336639274582036
sS'morning'
p57
F0.0014168319637291016
sS'large'
p58
F0.003967129498441485
sS'bad'
p59
F0.004533862283933126
sS'common'
p60
F0.002266931141966563
sS'rock'
p61
F0.012184754888070274
sS'jaycox'
p62
F0.00028336639274582036
sS'radio'
p63
F0.000850099178237461
sS'guy'
p64
F0.001700198356474922
sS'p_c_#-3'
p65
F0.003400396712949844
sS'ride'
p66
F0.0011334655709832814
sS'pigeon_#-3'
p67
F0.001700198356474922
sS'luck'
p68
F0.00028336639274582036
sS'insane'
p69
F0.003400396712949844
sS'small'
p70
F0.002266931141966563
sS'rock_#-1'
p71
F0.003967129498441485
sS'absolutely'
p72
F0.0025502975347123833
sS'hard'
p73
F0.002266931141966563
sS'feathers'
p74
F0.00028336639274582036
sS'p_c'
p75
F0.06715783508075943
sS'dead'
p76
F0.0036837631056956645
sS'captive'
p77
F0.003400396712949844
sS'street'
p78
F0.00028336639274582036
sS'design'
p79
F0.0011334655709832814
sS'result'
p80
F0.0011334655709832814
sS'band_#-2'
p81
F0.003400396712949844
sS'home'
p82
F0.0005667327854916407
sS'girl'
p83
F0.0011334655709832814
sS'thing'
p84
F0.0005667327854916407
sS'wears'
p85
F0.0014168319637291016
sS'blue'
p86
F0.004250495891187305
sS'living'
p87
F0.0056673278549164065
sS'glass'
p88
F0.001700198356474922
sS'open'
p89
F0.0005667327854916407
sS'pigeon'
p90
F0.08756021535845848
sS'stops'
p91
F0.0011334655709832814
sS'find'
p92
F0.004533862283933126
sS'cell'
p93
F0.004533862283933126
sS'waiting'
p94
F0.00028336639274582036
sS'indian'
p95
F0.0028336639274582033
sS'white_#2'
p96
F0.003400396712949844
sS'goes'
p97
F0.001700198356474922
sS'scientists'
p98
F0.003400396712949844
sS'fragments'
p99
F0.003400396712949844
sS'staff'
p100
F0.00028336639274582036
sS'racing'
p101
F0.0025502975347123833
sS'bird'
p102
F0.004250495891187305
sS'p_c_#-2'
p103
F0.003400396712949844
sS'officer'
p104
F0.0014168319637291016
sS'body'
p105
F0.0011334655709832814
sS'route'
p106
F0.0005667327854916407
sS'full'
p107
F0.001700198356474922
sS'run'
p108
F0.001700198356474922
sS'creating'
p109
F0.004533862283933126
sS'seconds'
p110
F0.0019835647492207425
sS'jumps'
p111
F0.004533862283933126
sS'team'
p112
F0.00028336639274582036
sS'lefty'
p113
F0.0014168319637291016
sS'free'
p114
F0.000850099178237461
sS'stem'
p115
F0.00850099178237461
sS'met'
p116
F0.0011334655709832814
sS'step'
p117
F0.000850099178237461
sS'slow'
p118
F0.0011334655709832814
sS'french'
p119
F0.0028336639274582033
sS'key'
p120
F0.001700198356474922
sS'cousin'
p121
F0.0014168319637291016
sS'singing'
p122
F0.003400396712949844
sS'care'
p123
F0.0014168319637291016
sS'box'
p124
F0.001700198356474922
sS'ace'
p125
F0.011901388495324454
sS'getting'
p126
F0.001700198356474922
sS'starts'
p127
F0.006800793425899688
sS'leaves'
p128
F0.005100595069424767
sS'museum'
p129
F0.00793425899688297
sS'caught_#1'
p130
F0.003967129498441485
sS'side'
p131
F0.0011334655709832814
sS'players'
p132
F0.0028336639274582033
sS'american'
p133
F0.0036837631056956645
sS'carrier'
p134
F0.0019835647492207425
sS'place'
p135
F0.0011334655709832814
sS'roof'
p136
F0.0036837631056956645
sS'tailed'
p137
F0.009917823746103713
sS'curry'
p138
F0.003967129498441485
sS'caught'
p139
F0.014735052422782658
sS'con'
p140
F0.0031170303202040237
sS'color'
p141
F0.0019835647492207425
sS'sweet'
p142
F0.00028336639274582036
sS'number'
p143
F0.0005667327854916407
sS'phase'
p144
F0.004533862283933126
sS'synthesize'
p145
F0.0011334655709832814
sS'set'
p146
F0.000850099178237461
sS'directly'
p147
F0.004817228676678946
sS'duck'
p148
F0.00028336639274582036
sS'owner'
p149
F0.0014168319637291016
sS'pulls'
p150
F0.0031170303202040237
sS'extinct'
p151
F0.001700198356474922
sS'extinction'
p152
F0.0025502975347123833
sS'okay'
p153
F0.0019835647492207425
sS'size'
p154
F0.004250495891187305
sS'city'
p155
F0.0014168319637291016
sS'story'
p156
F0.007367526211391329
sS'dna'
p157
F0.011051289317086993
sS'sucker'
p158
F0.003400396712949844
sS'create'
p159
F0.0028336639274582033
sS'germ'
p160
F0.005100595069424767
sS'camera'
p161
F0.0031170303202040237
sS'call'
p162
F0.0014168319637291016
sS'lot'
p163
F0.00028336639274582036
sS'damn'
p164
F0.0025502975347123833
sS'breeding'
p165
F0.004533862283933126
sS'peas_#1'
p166
F0.0076508926041371494
sS'bits'
p167
F0.002266931141966563
sS'war'
p168
F0.003400396712949844
sS'today'
p169
F0.006517427033153868
sS'poultry'
p170
F0.0036837631056956645
sS'eyes'
p171
F0.002266931141966563
sS'flight'
p172
F0.000850099178237461
sS'fire'
p173
F0.004533862283933126
sS'moved'
p174
F0.0005667327854916407
sS'sound'
p175
F0.0019835647492207425
sS'park'
p176
F0.0019835647492207425
sS'boys'
p177
F0.000850099178237461
sS'warm'
p178
F0.0014168319637291016
sS'hear'
p179
F0.0036837631056956645
sS'known'
p180
F0.0005667327854916407
sS'hole'
p181
F0.0005667327854916407
sS'trying'
p182
F0.0019835647492207425
sS'true'
p183
F0.001700198356474922
sS'hen'
p184
F0.0031170303202040237
sS'fly'
p185
F0.003967129498441485
sS'honey'
p186
F0.0028336639274582033
sS'kind'
p187
F0.00028336639274582036
sS'rice'
p188
F0.004533862283933126
sS'room'
p189
F0.000850099178237461
sS'talking'
p190
F0.0028336639274582033
sS'walks'
p191
F0.0014168319637291016
sS'car'
p192
F0.000850099178237461
sS'cells'
p193
F0.015018418815528478
sS'bill'
p194
F0.0019835647492207425
sS'told'
p195
F0.001700198356474922
sS'bed'
p196
F0.00028336639274582036
sS'air'
p197
F0.0005667327854916407
sS'matter'
p198
F0.00028336639274582036
sS'tailed_#-1'
p199
F0.003400396712949844
sS'making'
p200
F0.0005667327854916407
sS'cracked'
p201
F0.005383961462170587
sS'piece'
p202
F0.000850099178237461
sS'york'
p203
F0.0019835647492207425
sS'called'
p204
F0.004250495891187305
sS'history'
p205
F0.0028336639274582033
sS'passenger'
p206
F0.039954661377160666
sS'compare'
p207
F0.004250495891187305
sS'cont'
p208
F0.003400396712949844
sS'bio'
p209
F0.0019835647492207425
sS'caught_#-2'
p210
F0.0056673278549164065
sS'modern'
p211
F0.004250495891187305
sS'mind'
p212
F0.0031170303202040237
sS'head'
p213
F0.0076508926041371494
sS'deep'
p214
F0.0025502975347123833
sS'high'
p215
F0.007084159818645509
sS'heard'
p216
F0.0019835647492207425
sS'single'
p217
F0.0005667327854916407
sS'experience'
p218
F0.0028336639274582033
sS'seen'
p219
F0.0036837631056956645
sS'bones'
p220
F0.004533862283933126
sS'north'
p221
F0.00028336639274582036
sS'saw'
p222
F0.00028336639274582036
sS'species'
p223
F0.00850099178237461
sS'shit'
p224
F0.00028336639274582036
sS'returned'
p225
F0.000850099178237461
sS'end'
p226
F0.0014168319637291016
sS'built'
p227
F0.00028336639274582036
sS'ingredients'
p228
F0.0014168319637291016
sS'media'
p229
F0.003400396712949844
sS'length'
p230
F0.0036837631056956645
sS'thinking'
p231
F0.0005667327854916407
sS'field'
p232
F0.0019835647492207425
sS'chest'
p233
F0.0011334655709832814
sS'genome'
p234
F0.01700198356474922
sS'doors'
p235
F0.0011334655709832814
sS'season'
p236
F0.001700198356474922
sS'forge'
p237
F0.00028336639274582036
sS'pigeon_#3'
p238
F0.001700198356474922
sS'puppy'
p239
F0.000850099178237461
sS'difficult'
p240
F0.005100595069424767
sS'picture'
p241
F0.0019835647492207425
sS'altered'
p242
F0.004533862283933126
sS'tried'
p243
F0.00028336639274582036
sS'eggs'
p244
F0.0036837631056956645
sS'spot'
p245
F0.00028336639274582036
sS'peas'
p246
F0.01700198356474922
sS'hand'
p247
F0.00028336639274582036
sS'passenger_#-1'
p248
F0.010484556531595354
sS'produce'
p249
F0.004533862283933126
sS'blood'
p250
F0.0014168319637291016
sS'significant'
p251
F0.001700198356474922
sS'coming'
p252
F0.001700198356474922
sS'date'
p253
F0.0056673278549164065
sS'president'
p254
F0.0056673278549164065
sS'hawk'
p255
F0.002266931141966563
sS'weekend'
p256
F0.00028336639274582036
sS'died'
p257
F0.0005667327854916407
sS'goal'
p258
F0.0028336639274582033
sS'jones'
p259
F0.000850099178237461
sS'early'
p260
F0.0011334655709832814
sS'short'
p261
F0.000850099178237461
sS'natural'
p262
F0.003400396712949844
sS'neck'
p263
F0.0011334655709832814
sS'band'
p264
F0.00850099178237461
sS'dog'
p265
F0.0019835647492207425
sS'think'
p266
F0.000850099178237461
sS'looked'
p267
F0.000850099178237461
sS'green'
p268
F0.00028336639274582036
sS'turned'
p269
F0.000850099178237461
sS'mother'
p270
F0.0028336639274582033
sS'position'
p271
F0.00793425899688297
sS'egg'
p272
F0.0031170303202040237
sS'talk'
p273
F0.0005667327854916407
sS'left'
p274
F0.0011334655709832814
ssI2
(dp275
g10
F0.00017161489617298782
sg13
F0.0020593787540758536
sS'children'
p276
F0.0015445340655568904
sS'apartment'
p277
F0.0020593787540758536
sS'father'
p278
F0.002917453234940793
sS'young'
p279
F0.0020593787540758536
sS'send'
p280
F0.000858074480864939
sg30
F0.0010296893770379268
sS'bike'
p281
F0.001887763857902866
sS'wants'
p282
F0.000858074480864939
sg33
F0.00017161489617298782
sg35
F0.00034322979234597563
sg36
F0.00017161489617298782
sg225
F0.000858074480864939
sS'sitting'
p283
F0.002574223442594817
sS'facebook'
p284
F0.00034322979234597563
sS'drinking'
p285
F0.0006864595846919513
sg55
F0.000858074480864939
sg56
F0.003089068131113781
sS'grandfather'
p286
F0.0005148446885189634
sg58
F0.0005148446885189634
sS'race'
p287
F0.001887763857902866
sS'red'
p288
F0.00034322979234597563
sg112
F0.002745838338767805
sg70
F0.003775527715805732
sg64
F0.0013729191693839025
sS'clothes'
p289
F0.0010296893770379268
sS'streets'
p290
F0.0013729191693839025
sg74
F0.00034322979234597563
sg75
F0.12356272524455122
sS'tires'
p291
F0.001716148961729878
sS'slowed'
p292
F0.001887763857902866
sg78
F0.007207825639265488
sg79
F0.001716148961729878
sg17
F0.00034322979234597563
sg86
F0.002917453234940793
sS'stood'
p293
F0.0013729191693839025
sS'power'
p294
F0.0006864595846919513
sg93
F0.0022309936502488414
sg94
F0.0020593787540758536
sg95
F0.00034322979234597563
sg97
F0.00017161489617298782
sg98
F0.00034322979234597563
sg100
F0.001887763857902866
sg101
F0.0012013042732109147
sg195
F0.0012013042732109147
sg105
F0.0022309936502488414
sg107
F0.000858074480864939
sg119
F0.0006864595846919513
sg116
F0.0013729191693839025
sg124
F0.0013729191693839025
sS'boy'
p295
F0.0020593787540758536
sS'kids'
p296
F0.0022309936502488414
sg218
F0.00017161489617298782
sS'airport'
p297
F0.0022309936502488414
sS'smoke'
p298
F0.0020593787540758536
sS'pick'
p299
F0.0015445340655568904
sS'military'
p300
F0.0020593787540758536
sS'makes'
p301
F0.00017161489617298782
sS'family'
p302
F0.0049768319890166465
sS'brought'
p303
F0.0015445340655568904
sS'put'
p304
F0.004461987300497683
sg150
F0.0006864595846919513
sg122
F0.00034322979234597563
sS'takes'
p305
F0.003603912819632744
sS'working'
p306
F0.002917453234940793
sS'hospital'
p307
F0.0010296893770379268
sS'sports'
p308
F0.0024026085464218293
sg161
F0.0005148446885189634
sg162
F0.0022309936502488414
sS'vehicle'
p309
F0.00394714261197872
sg169
F0.0012013042732109147
sS'door'
p310
F0.005148446885189634
sS'started'
p311
F0.0015445340655568904
sS'company'
p312
F0.0015445340655568904
sg88
F0.000858074480864939
sg178
F0.0010296893770379268
sg180
F0.0010296893770379268
sg181
F0.00034322979234597563
sS'women'
p313
F0.0005148446885189634
sS'town'
p314
F0.004461987300497683
sg215
F0.0012013042732109147
sg189
F0.0015445340655568904
sg192
F0.059035524283507806
sg66
F0.005148446885189634
sS'gasoline'
p315
F0.001887763857902866
sg136
F0.00034322979234597563
sS'learn'
p316
F0.00034322979234597563
sg200
F0.002574223442594817
sS'drops'
p317
F0.001716148961729878
sS'control'
p318
F0.0006864595846919513
sS'heart'
p319
F0.00394714261197872
sS'want'
p320
F0.005320061781362622
sS'give'
p321
F0.0020593787540758536
sg186
F0.00034322979234597563
sg216
F0.0013729191693839025
sS'woman'
p322
F0.0022309936502488414
sS'purchased'
p323
F0.0005148446885189634
sg220
F0.0010296893770379268
sg223
F0.0005148446885189634
sg226
F0.004461987300497683
sg258
F0.0005148446885189634
sS'turn'
p324
F0.002574223442594817
sS'grass'
p325
F0.0022309936502488414
sg25
F0.00017161489617298782
sS'hot'
p326
F0.0010296893770379268
sS'beach'
p327
F0.000858074480864939
sg153
F0.0012013042732109147
sg243
F0.0024026085464218293
sg137
F0.00017161489617298782
sg245
F0.001887763857902866
sg249
F0.00034322979234597563
sg250
F0.002745838338767805
sg252
F0.0006864595846919513
sg254
F0.0006864595846919513
sg255
F0.00017161489617298782
sS'dove'
p328
F0.0005148446885189634
sg261
F0.0012013042732109147
sg262
F0.0013729191693839025
sg263
F0.0024026085464218293
sS'light'
p329
F0.004118757508151707
sS'things'
p330
F0.003432297923459756
sS'pulled'
p331
F0.0022309936502488414
sg273
F0.004290372404324695
sg4
F0.0022309936502488414
sS'office'
p332
F0.002745838338767805
sS'move'
p333
F0.001887763857902866
sg9
F0.0032606830272867687
sS'top'
p334
F0.0020593787540758536
sg15
F0.0012013042732109147
sS'cold'
p335
F0.00017161489617298782
sg23
F0.0013729191693839025
sS'police'
p336
F0.006006521366054574
sS'actually'
p337
F0.00017161489617298782
sg29
F0.002574223442594817
sS'window'
p338
F0.003603912819632744
sS'texas'
p339
F0.001887763857902866
sg6
F0.00017161489617298782
sS'practice'
p340
F0.0013729191693839025
sS'hands'
p341
F0.003603912819632744
sg26
F0.0049768319890166465
sS'rental'
p342
F0.0024026085464218293
sS'killed'
p343
F0.0032606830272867687
sS'james'
p344
F0.0022309936502488414
sS'stopped'
p345
F0.003603912819632744
sg61
F0.000858074480864939
sS'found'
p346
F0.003775527715805732
sg131
F0.006178136262227562
sS'house'
p347
F0.006178136262227562
sg73
F0.002745838338767805
sg83
F0.002745838338767805
sS'leave'
p348
F0.002745838338767805
sS'opened'
p349
F0.0024026085464218293
sS'driving'
p350
F0.005663291573708598
sg90
F0.0006864595846919513
sS'highway'
p351
F0.0022309936502488414
sS'cars'
p352
F0.00394714261197872
sg114
F0.0013729191693839025
sS'imagine'
p353
F0.001887763857902866
sS'ask'
p354
F0.0012013042732109147
sS'wanted'
p355
F0.003089068131113781
sg123
F0.0013729191693839025
sg106
F0.00017161489617298782
sS'days'
p356
F0.002917453234940793
sS'times'
p357
F0.003603912819632744
sg84
F0.003603912819632744
sg133
F0.0010296893770379268
sg135
F0.0012013042732109147
sg266
F0.0020593787540758536
sS'feel'
p358
F0.0006864595846919513
sg143
F0.0032606830272867687
sS'fancy'
p359
F0.0012013042732109147
sS'feet'
p360
F0.0013729191693839025
sg147
F0.00017161489617298782
sg149
F0.001716148961729878
sS'reached'
p361
F0.0013729191693839025
sS'sounds'
p362
F0.000858074480864939
sS'drove'
p363
F0.002917453234940793
sg89
F0.005663291573708598
sg154
F0.0015445340655568904
sg155
F0.006521366054573537
sg156
F0.00017161489617298782
sS'district'
p364
F0.0020593787540758536
sg139
F0.002574223442594817
sS'attack'
p365
F0.0006864595846919513
sg27
F0.00017161489617298782
sS'john'
p366
F0.002745838338767805
sS'friend'
p367
F0.001887763857902866
sg171
F0.0015445340655568904
sS'murder'
p368
F0.0024026085464218293
sg236
F0.0013729191693839025
sS'exactly'
p369
F0.0006864595846919513
sg176
F0.0013729191693839025
sS'took'
p370
F0.005320061781362622
sS'part'
p371
F0.002917453234940793
sS'photograph'
p372
F0.00034322979234597563
sg196
F0.0010296893770379268
sS'tommy'
p373
F0.00017161489617298782
sg198
F0.0020593787540758536
sS'store'
p374
F0.0013729191693839025
sS'feeling'
p375
F0.0024026085464218293
sS'ran'
p376
F0.0022309936502488414
sg212
F0.0010296893770379268
sg190
F0.0010296893770379268
sS'need'
p377
F0.004805217092843659
sg219
F0.0015445340655568904
sg222
F0.005148446885189634
sS'sat'
p378
F0.0022309936502488414
sS'mountain'
p379
F0.0005148446885189634
sg233
F0.0024026085464218293
sg235
F0.002917453234940793
sS'hotel'
p380
F0.003775527715805732
sS'electric'
p381
F0.003603912819632744
sS'knew'
p382
F0.0012013042732109147
sS'cigarette'
p383
F0.0022309936502488414
sg144
F0.0010296893770379268
sS'windows'
p384
F0.0024026085464218293
sg272
F0.00017161489617298782
sS'later'
p385
F0.0022309936502488414
sS'drive'
p386
F0.006178136262227562
sS'face'
p387
F0.0024026085464218293
sg267
F0.004290372404324695
sS'latest'
p388
F0.000858074480864939
sS'fact'
p389
F0.00034322979234597563
sS'shot'
p390
F0.0024026085464218293
sS'show'
p391
F0.002574223442594817
sS'droppings'
p392
F0.001887763857902866
sg12
F0.0024026085464218293
sg49
F0.0024026085464218293
sS'corner'
p393
F0.0024026085464218293
sg20
F0.0010296893770379268
sg92
F0.004290372404324695
sg22
F0.0010296893770379268
sg118
F0.0020593787540758536
sS'grabbed'
p394
F0.0012013042732109147
sS'going'
p395
F0.007551055431611464
sg31
F0.006178136262227562
sg32
F0.0024026085464218293
sS'riding'
p396
F0.0015445340655568904
sS'photographs'
p397
F0.00017161489617298782
sS'hit'
p398
F0.00394714261197872
sg39
F0.0015445340655568904
sS'stop'
p399
F0.0020593787540758536
sg187
F0.0015445340655568904
sg44
F0.0015445340655568904
sS'hello'
p400
F0.002745838338767805
sg57
F0.000858074480864939
sg59
F0.00034322979234597563
sS'miles'
p401
F0.005834906469881586
sg60
F0.00034322979234597563
sS'mercedes'
p402
F0.0024026085464218293
sS'river'
p403
F0.002574223442594817
sg193
F0.00017161489617298782
sS'husband'
p404
F0.0022309936502488414
sS'approaching'
p405
F0.0015445340655568904
sS'spotted'
p406
F0.00017161489617298782
sS'seat'
p407
F0.005148446885189634
sS'observed'
p408
F0.00017161489617298782
sS'culture'
p409
F0.002745838338767805
sg80
F0.0005148446885189634
sS'sea'
p410
F0.0006864595846919513
sS'parking'
p411
F0.001887763857902866
sS'close'
p412
F0.0022309936502488414
sS'jumped'
p413
F0.0022309936502488414
sS'closed'
p414
F0.002745838338767805
sg120
F0.0006864595846919513
sS'accident'
p415
F0.0020593787540758536
sS'country'
p416
F0.0013729191693839025
sS'taking'
p417
F0.002574223442594817
sS'april'
p418
F0.0012013042732109147
sS'asked'
p419
F0.0020593787540758536
sg140
F0.0006864595846919513
sg141
F0.000858074480864939
sg142
F0.001716148961729878
sS'walk'
p420
F0.002917453234940793
sS'church'
p421
F0.001887763857902866
sg151
F0.0013729191693839025
sS'dream'
p422
F0.000858074480864939
sS'tiny'
p423
F0.0020593787540758536
sg164
F0.0015445340655568904
sS'engine'
p424
F0.0032606830272867687
sS'shoulders'
p425
F0.0024026085464218293
sg173
F0.001887763857902866
sg269
F0.003603912819632744
sS'gas'
p426
F0.0063497511584005495
sS'look'
p427
F0.00394714261197872
sS'straight'
p428
F0.0022309936502488414
sg194
F0.0005148446885189634
sg197
F0.003775527715805732
sS'fun'
p429
F0.0024026085464218293
sS'voice'
p430
F0.0024026085464218293
sS'site'
p431
F0.0013729191693839025
sS'middle'
p432
F0.0024026085464218293
sS'sits'
p433
F0.0005148446885189634
sg132
F0.00017161489617298782
sg229
F0.00017161489617298782
sS'began'
p434
F0.0020593787540758536
sS'wheel'
p435
F0.0020593787540758536
sS'voiceover'
p436
F0.004633602196670671
sS'safe'
p437
F0.0015445340655568904
sS'driver'
p438
F0.004805217092843659
sS'drives'
p439
F0.0022309936502488414
sS'evil'
p440
F0.0010296893770379268
sg247
F0.003432297923459756
sS'moving'
p441
F0.001887763857902866
sS'cleaning'
p442
F0.00034322979234597563
sg170
F0.00017161489617298782
sg260
F0.00034322979234597563
sS'try'
p443
F0.002574223442594817
sS'thought'
p444
F0.004118757508151707
sS'person'
p445
F0.0013729191693839025
sS'relief'
p446
F0.0010296893770379268
sg270
F0.003775527715805732
sg271
F0.00017161489617298782
sg274
F0.00549167667753561
sg7
F0.0032606830272867687
sg45
F0.0012013042732109147
sg256
F0.0005148446885189634
sS'rest'
p447
F0.0020593787540758536
sg46
F0.0005148446885189634
sg14
F0.0006864595846919513
sS'human'
p448
F0.0024026085464218293
sg18
F0.0020593787540758536
sS'speed'
p449
F0.002745838338767805
sg24
F0.0010296893770379268
sg231
F0.0015445340655568904
sg28
F0.0010296893770379268
sS'wall'
p450
F0.00034322979234597563
sS'parents'
p451
F0.002574223442594817
sS'gave'
p452
F0.002917453234940793
sS'real'
p453
F0.0005148446885189634
sS'read'
p454
F0.001887763857902866
sg40
F0.0049768319890166465
sg41
F0.003775527715805732
sg43
F0.0020593787540758536
sg48
F0.0012013042732109147
sg54
F0.00034322979234597563
sg104
F0.002574223442594817
sS'clay'
p455
F0.0006864595846919513
sg72
F0.0006864595846919513
sS'footage'
p456
F0.0010296893770379268
sg76
F0.003603912819632744
sS'hair'
p457
F0.002574223442594817
sS'sure'
p458
F0.0013729191693839025
sS'sight'
p459
F0.00017161489617298782
sg82
F0.0032606830272867687
sg91
F0.0015445340655568904
sg108
F0.006006521366054574
sS'business'
p460
F0.0022309936502488414
sg110
F0.000858074480864939
sS'night'
p461
F0.0070362107430925
sg113
F0.00034322979234597563
sS'broken'
p462
F0.002574223442594817
sg117
F0.0022309936502488414
sS'carried'
p463
F0.0012013042732109147
sg126
F0.004290372404324695
sS'months'
p464
F0.0013729191693839025
sS'dinner'
p465
F0.0020593787540758536
sS'act'
p466
F0.0013729191693839025
sS'road'
p467
F0.002917453234940793
sS'son'
p468
F0.0032606830272867687
sS'transfer'
p469
F0.0006864595846919513
sS'fast'
p470
F0.0013729191693839025
sS'start'
p471
F0.0022309936502488414
sg163
F0.004118757508151707
sS'suit'
p472
F0.0020593787540758536
sS'forward'
p473
F0.004118757508151707
sS'slowly'
p474
F0.0022309936502488414
sS'ago'
p475
F0.0024026085464218293
sg213
F0.004461987300497683
sS'buy'
p476
F0.003089068131113781
sg221
F0.000858074480864939
sS'bus'
p477
F0.00017161489617298782
sg177
F0.0005148446885189634
sg179
F0.0010296893770379268
sS'line'
p478
F0.002745838338767805
sg182
F0.0010296893770379268
sg183
F0.000858074480864939
sS'eat'
p479
F0.0006864595846919513
sS'buying'
p480
F0.001887763857902866
sS'inside'
p481
F0.003089068131113781
sS'problem'
p482
F0.0020593787540758536
sg202
F0.0010296893770379268
sS'minutes'
p483
F0.002574223442594817
sg204
F0.004118757508151707
sg206
F0.001887763857902866
sS'int'
p484
F0.0012013042732109147
sg174
F0.0013729191693839025
sg214
F0.0006864595846919513
sS'fellow'
p485
F0.003089068131113781
sg217
F0.0032606830272867687
sg191
F0.00017161489617298782
sS'watched'
p486
F0.003089068131113781
sg224
F0.002745838338767805
sS'floor'
p487
F0.0010296893770379268
sS'percent'
p488
F0.0024026085464218293
sg239
F0.0022309936502488414
sg241
F0.00017161489617298782
sg87
F0.00017161489617298782
sS'students'
p489
F0.0013729191693839025
sS'felt'
p490
F0.0010296893770379268
sS'smiled'
p491
F0.001887763857902866
sS'friends'
p492
F0.0024026085464218293
sg257
F0.0010296893770379268
sg259
F0.00034322979234597563
sS'wife'
p493
F0.002574223442594817
sg265
F0.0024026085464218293
sS'walked'
p494
F0.0032606830272867687
sS'sounded'
p495
F0.001887763857902866
sS'original'
p496
F0.0020593787540758536
ssI3
(dp497
g13
F0.0004946821667078902
sg276
F0.004204798417017067
sg277
F0.0002473410833539451
sg278
F0.0002473410833539451
sg279
F0.0004946821667078902
sg280
F0.002226069750185506
sg30
F0.0002473410833539451
sg33
F0.002968093000247341
sg35
F0.002226069750185506
sg36
F0.003215434083601286
sg225
F0.0017313875834776156
sg283
F0.0037101162503091764
sg139
F0.0002473410833539451
sg284
F0.002473410833539451
sg285
F0.002473410833539451
sg53
F0.0017313875834776156
sg55
F0.0012367054167697256
sg56
F0.0012367054167697256
sg286
F0.001978728666831561
sg58
F0.0004946821667078902
sg288
F0.007420232500618353
sg70
F0.002473410833539451
sg289
F0.0017313875834776156
sS'tired'
p498
F0.003215434083601286
sg290
F0.0012367054167697256
sg74
F0.006678209250556517
sg75
F0.09844175117487014
sg291
F0.0002473410833539451
sg293
F0.0017313875834776156
sS'stool'
p499
F0.005441503833786792
sg93
F0.0002473410833539451
sg94
F0.0009893643334157804
sg97
F0.002968093000247341
sg100
F0.0002473410833539451
sg102
F0.024486767252040565
sg195
F0.0012367054167697256
sg105
F0.0002473410833539451
sg107
F0.002473410833539451
sS'leg'
p500
F0.002968093000247341
sS'smoky'
p501
F0.002968093000247341
sg218
F0.0002473410833539451
sg299
F0.0004946821667078902
sg300
F0.0002473410833539451
sg301
F0.002720751916893396
sg302
F0.0007420232500618352
sS'county'
p502
F0.002473410833539451
sg304
F0.0007420232500618352
sg148
F0.0051941627504328465
sg150
F0.003215434083601286
sg152
F0.0017313875834776156
sg157
F0.0002473410833539451
sg307
F0.0012367054167697256
sg308
F0.0004946821667078902
sS'live'
p503
F0.0034627751669552313
sg161
F0.0004946821667078902
sg162
F0.0009893643334157804
sS'tell'
p504
F0.006430868167202572
sg311
F0.0007420232500618352
sg312
F0.0012367054167697256
sg88
F0.0002473410833539451
sg178
F0.0007420232500618352
sS'rabbit'
p505
F0.002968093000247341
sg180
F0.006430868167202572
sg181
F0.001978728666831561
sg313
F0.001978728666831561
sg314
F0.0004946821667078902
sg189
F0.002226069750185506
sg192
F0.0002473410833539451
sS'dodo'
p506
F0.0034627751669552313
sg136
F0.002473410833539451
sg316
F0.004699480583724957
sg317
F0.0004946821667078902
sg205
F0.0014840465001236705
sg318
F0.003215434083601286
sg319
F0.002473410833539451
sg320
F0.002226069750185506
sg321
F0.004452139500371012
sS'harkins'
p507
F0.0034627751669552313
sg215
F0.0009893643334157804
sg216
F0.0002473410833539451
sg322
F0.0004946821667078902
sg323
F0.002720751916893396
sg223
F0.0051941627504328465
sg84
F0.003957457333663122
sg230
F0.0012367054167697256
sS'hampshire'
p508
F0.0037101162503091764
sg25
F0.002226069750185506
sg326
F0.0017313875834776156
sS'ounce'
p509
F0.002968093000247341
sg243
F0.0012367054167697256
sg399
F0.0014840465001236705
sg245
F0.0002473410833539451
sg248
F0.0017313875834776156
sg249
F0.001978728666831561
sg250
F0.0004946821667078902
sg252
F0.0009893643334157804
sg255
F0.002226069750185506
sg328
F0.011130348750927528
sg261
F0.0007420232500618352
sg268
F0.0034627751669552313
sS'allow'
p510
F0.003215434083601286
sg229
F0.0002473410833539451
sg272
F0.0014840465001236705
sg2
F0.001978728666831561
sg3
F0.001978728666831561
sg4
F0.004452139500371012
sg9
F0.0002473410833539451
sg335
F0.002968093000247341
sg21
F0.016324511501360377
sg337
F0.003957457333663122
sg29
F0.0012367054167697256
sg338
F0.0012367054167697256
sg6
F0.004699480583724957
sg340
F0.0009893643334157804
sg341
F0.0004946821667078902
sg26
F0.0002473410833539451
sS'cage'
p511
F0.004946821667078902
sg343
F0.0014840465001236705
sg61
F0.0009893643334157804
sg346
F0.0017313875834776156
sg131
F0.003957457333663122
sg68
F0.002720751916893396
sg347
F0.003215434083601286
sg73
F0.004204798417017067
sS'yeah'
p512
F0.004946821667078902
sg349
F0.0004946821667078902
sg90
F0.07939648775661637
sg351
F0.0014840465001236705
sg114
F0.0012367054167697256
sg203
F0.004699480583724957
sg354
F0.002720751916893396
sg106
F0.002968093000247341
sg356
F0.0037101162503091764
sg324
F0.0012367054167697256
sg133
F0.003215434083601286
sg135
F0.003215434083601286
sg266
F0.002473410833539451
sg358
F0.002226069750185506
sg143
F0.0004946821667078902
sg359
F0.0017313875834776156
sg360
F0.003215434083601286
sg145
F0.002473410833539451
sg149
F0.0004946821667078902
sg361
F0.0009893643334157804
sg362
F0.002226069750185506
sg363
F0.0004946821667078902
sg154
F0.0004946821667078902
sg155
F0.003215434083601286
sg156
F0.0017313875834776156
sg334
F0.0017313875834776156
sS'paint'
p513
F0.003215434083601286
sg365
F0.002226069750185506
sg27
F0.006678209250556517
sg374
F0.0007420232500618352
sg171
F0.0002473410833539451
sg236
F0.0002473410833539451
sg369
F0.0017313875834776156
sg176
F0.0007420232500618352
sg370
F0.0002473410833539451
sg371
F0.0034627751669552313
sg372
F0.0037101162503091764
sg196
F0.0009893643334157804
sg373
F0.004452139500371012
sg376
F0.0004946821667078902
sg211
F0.0002473410833539451
sg212
F0.0002473410833539451
sg377
F0.0002473410833539451
sg222
F0.001978728666831561
sg378
F0.0014840465001236705
sg379
F0.004699480583724957
sg227
F0.003215434083601286
sg233
F0.0002473410833539451
sg458
F0.0014840465001236705
sg244
F0.002226069750185506
sg382
F0.004204798417017067
sg251
F0.0014840465001236705
sS'forge_#1'
p514
F0.006925550333910463
sg422
F0.001978728666831561
sg385
F0.0037101162503091764
sg265
F0.0017313875834776156
sg267
F0.002226069750185506
sS'ext'
p515
F0.002720751916893396
sg388
F0.002226069750185506
sg389
F0.0051941627504328465
sg390
F0.0007420232500618352
sg391
F0.0017313875834776156
sg392
F0.006183527083848627
sg12
F0.0012367054167697256
sg63
F0.001978728666831561
sg17
F0.0004946821667078902
sS'chicken'
p516
F0.006925550333910463
sg20
F0.0007420232500618352
sg22
F0.002226069750185506
sg394
F0.0017313875834776156
sg396
F0.0014840465001236705
sg188
F0.002968093000247341
sS'carolina'
p517
F0.0034627751669552313
sg397
F0.002968093000247341
sg39
F0.0004946821667078902
sS'watch'
p518
F0.005936186000494682
sg187
F0.0007420232500618352
sg52
F0.0002473410833539451
sS'willems'
p519
F0.004452139500371012
sg57
F0.0009893643334157804
sg59
F0.001978728666831561
sg60
F0.0002473410833539451
sg403
F0.0017313875834776156
sS'hyperion'
p520
F0.003957457333663122
sg405
F0.0004946821667078902
sg406
F0.003215434083601286
sg146
F0.003215434083601286
sg407
F0.0007420232500618352
sg408
F0.002720751916893396
sg409
F0.0004946821667078902
sg80
F0.0017313875834776156
sg410
F0.002968093000247341
sg412
F0.0004946821667078902
sS'toolong'
p521
F0.002968093000247341
sg85
F0.002226069750185506
sS'death'
p522
F0.004452139500371012
sg120
F0.004946821667078902
sg121
F0.002226069750185506
sg416
F0.0009893643334157804
sg418
F0.0009893643334157804
sg419
F0.002473410833539451
sg140
F0.0002473410833539451
sS'point'
p523
F0.004946821667078902
sg450
F0.002473410833539451
sg421
F0.0004946821667078902
sS'tony'
p524
F0.002968093000247341
sg151
F0.004946821667078902
sg159
F0.0004946821667078902
sg423
F0.0014840465001236705
sg282
F0.002226069750185506
sg172
F0.003215434083601286
sg269
F0.0002473410833539451
sg175
F0.0017313875834776156
sg427
F0.002968093000247341
sg428
F0.0002473410833539451
sg194
F0.001978728666831561
sg197
F0.0004946821667078902
sg429
F0.0002473410833539451
sg201
F0.0002473410833539451
sg128
F0.0004946821667078902
sg431
F0.0034627751669552313
sS'ready'
p525
F0.0034627751669552313
sg433
F0.002226069750185506
sS'everyday'
p526
F0.004946821667078902
sg132
F0.0012367054167697256
sg330
F0.0004946821667078902
sg238
F0.0014840465001236705
sg435
F0.0007420232500618352
sg436
F0.006678209250556517
sg437
F0.0007420232500618352
sg492
F0.0004946821667078902
sg440
F0.0012367054167697256
sg247
F0.0007420232500618352
sg441
F0.0004946821667078902
sg442
F0.002968093000247341
sg170
F0.0004946821667078902
sg228
F0.002226069750185506
sg444
F0.002720751916893396
sg445
F0.003215434083601286
sg446
F0.0014840465001236705
sg270
F0.0002473410833539451
sg274
F0.0007420232500618352
sg8
F0.005688844917140737
sS'unfair'
p527
F0.003215434083601286
sg447
F0.0002473410833539451
sg46
F0.0012367054167697256
sg14
F0.0012367054167697256
sg16
F0.004204798417017067
sg18
F0.0004946821667078902
sg24
F0.0017313875834776156
sg28
F0.002968093000247341
sg453
F0.0037101162503091764
sg209
F0.004204798417017067
sg260
F0.002226069750185506
sg51
F0.0004946821667078902
sg303
F0.003957457333663122
sS'homing'
p528
F0.010388325500865693
sg455
F0.002968093000247341
sg62
F0.003215434083601286
sg67
F0.0014840465001236705
sg72
F0.0002473410833539451
sg456
F0.002226069750185506
sg76
F0.0004946821667078902
sS'born'
p529
F0.002968093000247341
sg459
F0.002473410833539451
sg82
F0.0017313875834776156
sS'pet'
p530
F0.0034627751669552313
sg103
F0.0014840465001236705
sg65
F0.0014840465001236705
sS'noise'
p531
F0.002968093000247341
sg108
F0.0009893643334157804
sg294
F0.004946821667078902
sg110
F0.0004946821667078902
sg461
F0.006183527083848627
sg113
F0.0012367054167697256
sg462
F0.0007420232500618352
sg117
F0.0012367054167697256
sg463
F0.002226069750185506
sg125
F0.0009893643334157804
sg126
F0.0004946821667078902
sg464
F0.0009893643334157804
sg465
F0.0004946821667078902
sg134
F0.006678209250556517
sg466
F0.001978728666831561
sg467
F0.0051941627504328465
sS'garbage'
p532
F0.002720751916893396
sg469
F0.0017313875834776156
sg470
F0.001978728666831561
sg163
F0.0002473410833539451
sg472
F0.0002473410833539451
sg184
F0.0007420232500618352
sg166
F0.0002473410833539451
sg475
F0.0002473410833539451
sg213
F0.002968093000247341
sg221
F0.002968093000247341
sg477
F0.007667573583972298
sg177
F0.0009893643334157804
sg179
F0.003215434083601286
sg478
F0.0009893643334157804
sg182
F0.003215434083601286
sg183
F0.002473410833539451
sg479
F0.003957457333663122
sS'braver'
p533
F0.0034627751669552313
sg481
F0.0009893643334157804
sg384
F0.0002473410833539451
sg202
F0.0004946821667078902
sg204
F0.0034627751669552313
sg206
F0.00964630225080386
sg484
F0.002968093000247341
sg174
F0.0017313875834776156
sg214
F0.001978728666831561
sg386
F0.006925550333910463
sg191
F0.0034627751669552313
sS'shooting'
p534
F0.002720751916893396
sg224
F0.0007420232500618352
sg487
F0.004452139500371012
sg488
F0.0017313875834776156
sg232
F0.002473410833539451
sS'parakeet'
p535
F0.002968093000247341
sg237
F0.009151620084095969
sg241
F0.0009893643334157804
sS'kinds'
p536
F0.0034627751669552313
sg489
F0.0014840465001236705
sg490
F0.001978728666831561
sg246
F0.001978728666831561
sg491
F0.0002473410833539451
sg256
F0.0017313875834776156
sg257
F0.0012367054167697256
sg259
F0.002720751916893396
sg493
F0.0007420232500618352
ss.